ARM GAS  C:\Users\bubble\AppData\Local\Temp\cc51e8AY.s 			page 1


   1              		.cpu cortex-m4
   2              		.arch armv7e-m
   3              		.fpu fpv4-sp-d16
   4              		.eabi_attribute 27, 1
   5              		.eabi_attribute 28, 1
   6              		.eabi_attribute 20, 1
   7              		.eabi_attribute 21, 1
   8              		.eabi_attribute 23, 3
   9              		.eabi_attribute 24, 1
  10              		.eabi_attribute 25, 1
  11              		.eabi_attribute 26, 1
  12              		.eabi_attribute 30, 1
  13              		.eabi_attribute 34, 1
  14              		.eabi_attribute 18, 4
  15              		.file	"app_display.c"
  16              		.text
  17              	.Ltext0:
  18              		.cfi_sections	.debug_frame
  19              		.section	.rodata.App_Display_RrefText.str1.4,"aMS",%progbits,1
  20              		.align	2
  21              	.LC0:
  22 0000 3F00     		.ascii	"?\000"
  23 0002 0000     		.align	2
  24              	.LC1:
  25 0004 316B00   		.ascii	"1k\000"
  26 0007 00       		.align	2
  27              	.LC2:
  28 0008 31306B00 		.ascii	"10k\000"
  29              		.align	2
  30              	.LC3:
  31 000c 3130306B 		.ascii	"100k\000"
  31      00
  32 0011 000000   		.align	2
  33              	.LC4:
  34 0014 32305200 		.ascii	"20R\000"
  35              		.section	.text.App_Display_RrefText,"ax",%progbits
  36              		.align	1
  37              		.syntax unified
  38              		.thumb
  39              		.thumb_func
  41              	App_Display_RrefText:
  42              	.LVL0:
  43              	.LFB246:
  44              		.file 1 "User_App/app_display.c"
   1:User_App/app_display.c **** ﻿#include "app_display.h"
   2:User_App/app_display.c **** 
   3:User_App/app_display.c **** #include <math.h>
   4:User_App/app_display.c **** #include <stdio.h>
   5:User_App/app_display.c **** #include <string.h>
   6:User_App/app_display.c **** 
   7:User_App/app_display.c **** #include "OLED.h"
   8:User_App/app_display.c **** #include "app_key.h"
   9:User_App/app_display.c **** #include "app_measure.h"
  10:User_App/app_display.c **** #include "bsp_afe.h"
  11:User_App/app_display.c **** 
  12:User_App/app_display.c **** extern osMessageQueueId_t Queue_CmdHandle;
  13:User_App/app_display.c **** 
ARM GAS  C:\Users\bubble\AppData\Local\Temp\cc51e8AY.s 			page 2


  14:User_App/app_display.c **** static const uint32_t kFreqList[] = {100u, 1000u, 10000u, 100000u};
  15:User_App/app_display.c **** static const char *kFreqStr[] = {"100Hz", "1kHz", "10kHz", "100kHz"};
  16:User_App/app_display.c **** 
  17:User_App/app_display.c **** static const char *kAmpStr[] = {"0.3Vr", "0.6Vr", "1.0Vr"};
  18:User_App/app_display.c **** 
  19:User_App/app_display.c **** static const char *kMenuItems[] = {
  20:User_App/app_display.c ****     "PinLv(Freq)",
  21:User_App/app_display.c ****     "ZhenFu(Amp)",
  22:User_App/app_display.c ****     "XianShi(Mode)",
  23:User_App/app_display.c ****     "GuanYu(About)",
  24:User_App/app_display.c **** };
  25:User_App/app_display.c **** 
  26:User_App/app_display.c **** static ScreenId_t s_screen = SCREEN_MEASURE;
  27:User_App/app_display.c **** static DispMode_t s_disp_mode = DISP_MODE_NORMAL;
  28:User_App/app_display.c **** 
  29:User_App/app_display.c **** static uint8_t s_menu_index = 0u;
  30:User_App/app_display.c **** static uint8_t s_freq_index = 1u;
  31:User_App/app_display.c **** static uint8_t s_amp_index = 0u;
  32:User_App/app_display.c **** 
  33:User_App/app_display.c **** static uint16_t s_bat_ticks = 0u;
  34:User_App/app_display.c **** static float s_bat_v = 3.7f;
  35:User_App/app_display.c **** 
  36:User_App/app_display.c **** static MeasureResult_t s_last_result;
  37:User_App/app_display.c **** 
  38:User_App/app_display.c **** static const char *App_Display_RrefText(AFE_Rref_t rref)
  39:User_App/app_display.c **** {
  45              		.loc 1 39 1 view -0
  46              		.cfi_startproc
  47              		@ args = 0, pretend = 0, frame = 0
  48              		@ frame_needed = 0, uses_anonymous_args = 0
  49              		@ link register save eliminated.
  40:User_App/app_display.c ****     switch (rref) {
  50              		.loc 1 40 5 view .LVU1
  51 0000 0328     		cmp	r0, #3
  52 0002 09D8     		bhi	.L2
  53 0004 DFE800F0 		tbb	[pc, r0]
  54              	.L4:
  55 0008 02       		.byte	(.L7-.L4)/2
  56 0009 0A       		.byte	(.L8-.L4)/2
  57 000a 04       		.byte	(.L5-.L4)/2
  58 000b 06       		.byte	(.L3-.L4)/2
  59              		.p2align 1
  60              	.L7:
  61 000c 0448     		ldr	r0, .L9
  62              	.LVL1:
  63              		.loc 1 40 5 is_stmt 0 view .LVU2
  64 000e 7047     		bx	lr
  65              	.LVL2:
  66              	.L5:
  41:User_App/app_display.c ****     case RREF_20R:
  42:User_App/app_display.c ****         return "20R";
  43:User_App/app_display.c ****     case RREF_1K:
  44:User_App/app_display.c ****         return "1k";
  45:User_App/app_display.c ****     case RREF_10K:
  46:User_App/app_display.c ****         return "10k";
  67              		.loc 1 46 9 is_stmt 1 view .LVU3
  68              		.loc 1 46 16 is_stmt 0 view .LVU4
ARM GAS  C:\Users\bubble\AppData\Local\Temp\cc51e8AY.s 			page 3


  69 0010 0448     		ldr	r0, .L9+4
  70              	.LVL3:
  71              		.loc 1 46 16 view .LVU5
  72 0012 7047     		bx	lr
  73              	.LVL4:
  74              	.L3:
  47:User_App/app_display.c ****     case RREF_100K:
  48:User_App/app_display.c ****         return "100k";
  75              		.loc 1 48 9 is_stmt 1 view .LVU6
  76              		.loc 1 48 16 is_stmt 0 view .LVU7
  77 0014 0448     		ldr	r0, .L9+8
  78              	.LVL5:
  79              		.loc 1 48 16 view .LVU8
  80 0016 7047     		bx	lr
  81              	.LVL6:
  82              	.L2:
  49:User_App/app_display.c ****     default:
  50:User_App/app_display.c ****         return "?";
  83              		.loc 1 50 9 is_stmt 1 view .LVU9
  84              		.loc 1 50 16 is_stmt 0 view .LVU10
  85 0018 0448     		ldr	r0, .L9+12
  86              	.LVL7:
  87              		.loc 1 50 16 view .LVU11
  88 001a 7047     		bx	lr
  89              	.LVL8:
  90              	.L8:
  44:User_App/app_display.c ****     case RREF_10K:
  91              		.loc 1 44 16 view .LVU12
  92 001c 0448     		ldr	r0, .L9+16
  93              	.LVL9:
  51:User_App/app_display.c ****     }
  52:User_App/app_display.c **** }
  94              		.loc 1 52 1 view .LVU13
  95 001e 7047     		bx	lr
  96              	.L10:
  97              		.align	2
  98              	.L9:
  99 0020 14000000 		.word	.LC4
 100 0024 08000000 		.word	.LC2
 101 0028 0C000000 		.word	.LC3
 102 002c 00000000 		.word	.LC0
 103 0030 04000000 		.word	.LC1
 104              		.cfi_endproc
 105              	.LFE246:
 107              		.section	.rodata.App_Display_DrawSetMode.str1.4,"aMS",%progbits,1
 108              		.align	2
 109              	.LC5:
 110 0000 5869616E 		.ascii	"XianShi(Mode)\000"
 110      53686928 
 110      4D6F6465 
 110      2900
 111 000e 0000     		.align	2
 112              	.LC6:
 113 0010 4B322F4B 		.ascii	"K2/K3 toggle\000"
 113      3320746F 
 113      67676C65 
 113      00
ARM GAS  C:\Users\bubble\AppData\Local\Temp\cc51e8AY.s 			page 4


 114 001d 000000   		.align	2
 115              	.LC7:
 116 0020 4B312073 		.ascii	"K1 save, long back\000"
 116      6176652C 
 116      206C6F6E 
 116      67206261 
 116      636B00
 117 0033 00       		.align	2
 118              	.LC8:
 119 0034 3E204E4F 		.ascii	"> NORMAL\000"
 119      524D414C 
 119      00
 120 003d 000000   		.align	2
 121              	.LC9:
 122 0040 3E204445 		.ascii	"> DETAIL\000"
 122      5441494C 
 122      00
 123              		.section	.text.App_Display_DrawSetMode,"ax",%progbits
 124              		.align	1
 125              		.syntax unified
 126              		.thumb
 127              		.thumb_func
 129              	App_Display_DrawSetMode:
 130              	.LFB256:
  53:User_App/app_display.c **** 
  54:User_App/app_display.c **** static void App_Display_FormatRes(float value, char *buf, uint32_t len)
  55:User_App/app_display.c **** {
  56:User_App/app_display.c ****     float absv = fabsf(value);
  57:User_App/app_display.c **** 
  58:User_App/app_display.c ****     if (absv >= 1e6f) {
  59:User_App/app_display.c ****         snprintf(buf, len, "%.3fMR", value / 1e6f);
  60:User_App/app_display.c ****     } else if (absv >= 1e3f) {
  61:User_App/app_display.c ****         snprintf(buf, len, "%.3fkR", value / 1e3f);
  62:User_App/app_display.c ****     } else if (absv >= 1.0f) {
  63:User_App/app_display.c ****         snprintf(buf, len, "%.3fR", value);
  64:User_App/app_display.c ****     } else {
  65:User_App/app_display.c ****         snprintf(buf, len, "%.2fmR", value * 1e3f);
  66:User_App/app_display.c ****     }
  67:User_App/app_display.c **** }
  68:User_App/app_display.c **** 
  69:User_App/app_display.c **** static void App_Display_FormatCap(float value, char *buf, uint32_t len)
  70:User_App/app_display.c **** {
  71:User_App/app_display.c ****     float absv = fabsf(value);
  72:User_App/app_display.c **** 
  73:User_App/app_display.c ****     if (absv >= 1e-3f) {
  74:User_App/app_display.c ****         snprintf(buf, len, "%.3fmF", value * 1e3f);
  75:User_App/app_display.c ****     } else if (absv >= 1e-6f) {
  76:User_App/app_display.c ****         snprintf(buf, len, "%.3fuF", value * 1e6f);
  77:User_App/app_display.c ****     } else if (absv >= 1e-9f) {
  78:User_App/app_display.c ****         snprintf(buf, len, "%.3fnF", value * 1e9f);
  79:User_App/app_display.c ****     } else {
  80:User_App/app_display.c ****         snprintf(buf, len, "%.2fpF", value * 1e12f);
  81:User_App/app_display.c ****     }
  82:User_App/app_display.c **** }
  83:User_App/app_display.c **** 
  84:User_App/app_display.c **** static void App_Display_FormatInd(float value, char *buf, uint32_t len)
  85:User_App/app_display.c **** {
ARM GAS  C:\Users\bubble\AppData\Local\Temp\cc51e8AY.s 			page 5


  86:User_App/app_display.c ****     float absv = fabsf(value);
  87:User_App/app_display.c **** 
  88:User_App/app_display.c ****     if (absv >= 1.0f) {
  89:User_App/app_display.c ****         snprintf(buf, len, "%.3fH", value);
  90:User_App/app_display.c ****     } else if (absv >= 1e-3f) {
  91:User_App/app_display.c ****         snprintf(buf, len, "%.3fmH", value * 1e3f);
  92:User_App/app_display.c ****     } else if (absv >= 1e-6f) {
  93:User_App/app_display.c ****         snprintf(buf, len, "%.3fuH", value * 1e6f);
  94:User_App/app_display.c ****     } else {
  95:User_App/app_display.c ****         snprintf(buf, len, "%.2fnH", value * 1e9f);
  96:User_App/app_display.c ****     }
  97:User_App/app_display.c **** }
  98:User_App/app_display.c **** 
  99:User_App/app_display.c **** static void App_Display_FormatPrimary(const MeasureResult_t *result, char *buf, uint32_t len)
 100:User_App/app_display.c **** {
 101:User_App/app_display.c ****     char val[20];
 102:User_App/app_display.c **** 
 103:User_App/app_display.c ****     if ((result == NULL) || (result->valid == 0u)) {
 104:User_App/app_display.c ****         snprintf(buf, len, "-- Measuring --");
 105:User_App/app_display.c ****         return;
 106:User_App/app_display.c ****     }
 107:User_App/app_display.c **** 
 108:User_App/app_display.c ****     switch (result->comp_type) {
 109:User_App/app_display.c ****     case COMP_RESISTOR:
 110:User_App/app_display.c ****         App_Display_FormatRes(result->primary_value, val, sizeof(val));
 111:User_App/app_display.c ****         snprintf(buf, len, "R %s", val);
 112:User_App/app_display.c ****         break;
 113:User_App/app_display.c ****     case COMP_CAPACITOR:
 114:User_App/app_display.c ****         App_Display_FormatCap(result->primary_value, val, sizeof(val));
 115:User_App/app_display.c ****         snprintf(buf, len, "C %s", val);
 116:User_App/app_display.c ****         break;
 117:User_App/app_display.c ****     case COMP_INDUCTOR:
 118:User_App/app_display.c ****         App_Display_FormatInd(result->primary_value, val, sizeof(val));
 119:User_App/app_display.c ****         snprintf(buf, len, "L %s", val);
 120:User_App/app_display.c ****         break;
 121:User_App/app_display.c ****     default:
 122:User_App/app_display.c ****         snprintf(buf, len, "Unknown");
 123:User_App/app_display.c ****         break;
 124:User_App/app_display.c ****     }
 125:User_App/app_display.c **** }
 126:User_App/app_display.c **** 
 127:User_App/app_display.c **** static void App_Display_BatteryBar(float vbat, char *buf, uint32_t len)
 128:User_App/app_display.c **** {
 129:User_App/app_display.c ****     int pct = (int)(((vbat - 3.5f) / (4.2f - 3.5f)) * 100.0f);
 130:User_App/app_display.c ****     int bars;
 131:User_App/app_display.c **** 
 132:User_App/app_display.c ****     if (pct < 0) {
 133:User_App/app_display.c ****         pct = 0;
 134:User_App/app_display.c ****     }
 135:User_App/app_display.c ****     if (pct > 100) {
 136:User_App/app_display.c ****         pct = 100;
 137:User_App/app_display.c ****     }
 138:User_App/app_display.c **** 
 139:User_App/app_display.c ****     bars = pct / 20;
 140:User_App/app_display.c ****     snprintf(buf,
 141:User_App/app_display.c ****              len,
 142:User_App/app_display.c ****              "[%c%c%c%c%c]",
ARM GAS  C:\Users\bubble\AppData\Local\Temp\cc51e8AY.s 			page 6


 143:User_App/app_display.c ****              (bars >= 1) ? '#' : '.',
 144:User_App/app_display.c ****              (bars >= 2) ? '#' : '.',
 145:User_App/app_display.c ****              (bars >= 3) ? '#' : '.',
 146:User_App/app_display.c ****              (bars >= 4) ? '#' : '.',
 147:User_App/app_display.c ****              (bars >= 5) ? '#' : '.');
 148:User_App/app_display.c **** }
 149:User_App/app_display.c **** 
 150:User_App/app_display.c **** static void App_Display_DrawMeasure(const MeasureResult_t *result)
 151:User_App/app_display.c **** {
 152:User_App/app_display.c ****     char line[32];
 153:User_App/app_display.c ****     char zbuf[16];
 154:User_App/app_display.c ****     char bat[12];
 155:User_App/app_display.c **** 
 156:User_App/app_display.c ****     App_Display_FormatPrimary(result, line, sizeof(line));
 157:User_App/app_display.c ****     OLED_ShowString(0, 0, line, OLED_8X16);
 158:User_App/app_display.c **** 
 159:User_App/app_display.c ****     if ((result != NULL) && (result->valid != 0u)) {
 160:User_App/app_display.c ****         snprintf(line, sizeof(line), "Q=%.2f D=%.3f", result->q_factor, result->d_factor);
 161:User_App/app_display.c ****     } else {
 162:User_App/app_display.c ****         snprintf(line, sizeof(line), "Q=--- D=---");
 163:User_App/app_display.c ****     }
 164:User_App/app_display.c ****     OLED_ShowString(0, 16, line, OLED_6X8);
 165:User_App/app_display.c **** 
 166:User_App/app_display.c ****     if ((result != NULL) && (result->valid != 0u)) {
 167:User_App/app_display.c ****         App_Display_FormatRes(result->z_mag_ohm, zbuf, sizeof(zbuf));
 168:User_App/app_display.c ****         snprintf(line, sizeof(line), "|Z|=%s", zbuf);
 169:User_App/app_display.c ****         OLED_ShowString(0, 24, line, OLED_6X8);
 170:User_App/app_display.c **** 
 171:User_App/app_display.c ****         snprintf(line, sizeof(line), "Ph=%.1f", result->phase_deg);
 172:User_App/app_display.c ****         OLED_ShowString(72, 24, line, OLED_6X8);
 173:User_App/app_display.c **** 
 174:User_App/app_display.c ****         snprintf(line,
 175:User_App/app_display.c ****                  sizeof(line),
 176:User_App/app_display.c ****                  "R:%s G:%u",
 177:User_App/app_display.c ****                  App_Display_RrefText(result->rref_range),
 178:User_App/app_display.c ****                  (unsigned)result->pga_gain);
 179:User_App/app_display.c ****         OLED_ShowString(0, 32, line, OLED_6X8);
 180:User_App/app_display.c ****     } else {
 181:User_App/app_display.c ****         OLED_ShowString(0, 24, "|Z|=---", OLED_6X8);
 182:User_App/app_display.c ****         OLED_ShowString(72, 24, "Ph=---", OLED_6X8);
 183:User_App/app_display.c ****         OLED_ShowString(0, 32, "R:-- G:--", OLED_6X8);
 184:User_App/app_display.c ****     }
 185:User_App/app_display.c **** 
 186:User_App/app_display.c ****     App_Display_BatteryBar(s_bat_v, bat, sizeof(bat));
 187:User_App/app_display.c ****     snprintf(line, sizeof(line), "%s %s", kFreqStr[s_freq_index], bat);
 188:User_App/app_display.c ****     OLED_ShowString(0, 40, line, OLED_6X8);
 189:User_App/app_display.c **** 
 190:User_App/app_display.c ****     snprintf(line, sizeof(line), "Bat=%.2fV", s_bat_v);
 191:User_App/app_display.c ****     OLED_ShowString(0, 48, line, OLED_6X8);
 192:User_App/app_display.c **** 
 193:User_App/app_display.c ****     if (s_disp_mode == DISP_MODE_NORMAL) {
 194:User_App/app_display.c ****         OLED_ShowString(0, 56, "K1Menu K4Freq K2Mode", OLED_6X8);
 195:User_App/app_display.c ****     } else {
 196:User_App/app_display.c ****         if ((result != NULL) && (result->valid != 0u)) {
 197:User_App/app_display.c ****             App_Display_FormatRes(result->re_ohm, zbuf, sizeof(zbuf));
 198:User_App/app_display.c ****             snprintf(line, sizeof(line), "Re=%s", zbuf);
 199:User_App/app_display.c ****             OLED_ShowString(0, 56, line, OLED_6X8);
ARM GAS  C:\Users\bubble\AppData\Local\Temp\cc51e8AY.s 			page 7


 200:User_App/app_display.c **** 
 201:User_App/app_display.c ****             App_Display_FormatRes(result->im_ohm, zbuf, sizeof(zbuf));
 202:User_App/app_display.c ****             snprintf(line, sizeof(line), "Im=%s", zbuf);
 203:User_App/app_display.c ****             OLED_ShowString(64, 56, line, OLED_6X8);
 204:User_App/app_display.c ****         } else {
 205:User_App/app_display.c ****             OLED_ShowString(0, 56, "Re=--- Im=---", OLED_6X8);
 206:User_App/app_display.c ****         }
 207:User_App/app_display.c ****     }
 208:User_App/app_display.c **** }
 209:User_App/app_display.c **** 
 210:User_App/app_display.c **** static void App_Display_DrawMenu(void)
 211:User_App/app_display.c **** {
 212:User_App/app_display.c ****     uint8_t i;
 213:User_App/app_display.c **** 
 214:User_App/app_display.c ****     OLED_ShowString(0, 0, "Menu(CaiDan)", OLED_6X8);
 215:User_App/app_display.c ****     OLED_ShowString(0, 8, "K2/K3 move, K1 ok", OLED_6X8);
 216:User_App/app_display.c **** 
 217:User_App/app_display.c ****     for (i = 0u; i < 4u; i++) {
 218:User_App/app_display.c ****         char line[24];
 219:User_App/app_display.c ****         snprintf(line, sizeof(line), "%c %s", (i == s_menu_index) ? '>' : ' ', kMenuItems[i]);
 220:User_App/app_display.c ****         OLED_ShowString(0, (uint8_t)(16u + i * 8u), line, OLED_6X8);
 221:User_App/app_display.c ****     }
 222:User_App/app_display.c **** 
 223:User_App/app_display.c ****     OLED_ShowString(0, 56, "K1 long: back", OLED_6X8);
 224:User_App/app_display.c **** }
 225:User_App/app_display.c **** 
 226:User_App/app_display.c **** static void App_Display_DrawSetFreq(void)
 227:User_App/app_display.c **** {
 228:User_App/app_display.c ****     char line[24];
 229:User_App/app_display.c **** 
 230:User_App/app_display.c ****     OLED_ShowString(0, 0, "PinLv(Freq)", OLED_6X8);
 231:User_App/app_display.c ****     OLED_ShowString(0, 8, "K2/K3 change", OLED_6X8);
 232:User_App/app_display.c ****     OLED_ShowString(0, 16, "K1 save, long back", OLED_6X8);
 233:User_App/app_display.c **** 
 234:User_App/app_display.c ****     snprintf(line, sizeof(line), "> %s", kFreqStr[s_freq_index]);
 235:User_App/app_display.c ****     OLED_ShowString(0, 32, line, OLED_8X16);
 236:User_App/app_display.c **** }
 237:User_App/app_display.c **** 
 238:User_App/app_display.c **** static void App_Display_DrawSetAmp(void)
 239:User_App/app_display.c **** {
 240:User_App/app_display.c ****     char line[24];
 241:User_App/app_display.c **** 
 242:User_App/app_display.c ****     OLED_ShowString(0, 0, "ZhenFu(Amp)", OLED_6X8);
 243:User_App/app_display.c ****     OLED_ShowString(0, 8, "K2/K3 change", OLED_6X8);
 244:User_App/app_display.c ****     OLED_ShowString(0, 16, "K1 save, long back", OLED_6X8);
 245:User_App/app_display.c **** 
 246:User_App/app_display.c ****     snprintf(line, sizeof(line), "> %s", kAmpStr[s_amp_index]);
 247:User_App/app_display.c ****     OLED_ShowString(0, 32, line, OLED_8X16);
 248:User_App/app_display.c **** }
 249:User_App/app_display.c **** 
 250:User_App/app_display.c **** static void App_Display_DrawSetMode(void)
 251:User_App/app_display.c **** {
 131              		.loc 1 251 1 is_stmt 1 view -0
 132              		.cfi_startproc
 133              		@ args = 0, pretend = 0, frame = 0
 134              		@ frame_needed = 0, uses_anonymous_args = 0
 135 0000 08B5     		push	{r3, lr}
ARM GAS  C:\Users\bubble\AppData\Local\Temp\cc51e8AY.s 			page 8


 136              	.LCFI0:
 137              		.cfi_def_cfa_offset 8
 138              		.cfi_offset 3, -8
 139              		.cfi_offset 14, -4
 252:User_App/app_display.c ****     OLED_ShowString(0, 0, "XianShi(Mode)", OLED_6X8);
 140              		.loc 1 252 5 view .LVU15
 141 0002 0623     		movs	r3, #6
 142 0004 104A     		ldr	r2, .L15
 143 0006 0021     		movs	r1, #0
 144 0008 0846     		mov	r0, r1
 145 000a FFF7FEFF 		bl	OLED_ShowString
 146              	.LVL10:
 253:User_App/app_display.c ****     OLED_ShowString(0, 8, "K2/K3 toggle", OLED_6X8);
 147              		.loc 1 253 5 view .LVU16
 148 000e 0623     		movs	r3, #6
 149 0010 0E4A     		ldr	r2, .L15+4
 150 0012 0821     		movs	r1, #8
 151 0014 0020     		movs	r0, #0
 152 0016 FFF7FEFF 		bl	OLED_ShowString
 153              	.LVL11:
 254:User_App/app_display.c ****     OLED_ShowString(0, 16, "K1 save, long back", OLED_6X8);
 154              		.loc 1 254 5 view .LVU17
 155 001a 0623     		movs	r3, #6
 156 001c 0C4A     		ldr	r2, .L15+8
 157 001e 1021     		movs	r1, #16
 158 0020 0020     		movs	r0, #0
 159 0022 FFF7FEFF 		bl	OLED_ShowString
 160              	.LVL12:
 255:User_App/app_display.c **** 
 256:User_App/app_display.c ****     if (s_disp_mode == DISP_MODE_NORMAL) {
 161              		.loc 1 256 5 view .LVU18
 162              		.loc 1 256 21 is_stmt 0 view .LVU19
 163 0026 0B4B     		ldr	r3, .L15+12
 164 0028 1B78     		ldrb	r3, [r3]	@ zero_extendqisi2
 165              		.loc 1 256 8 view .LVU20
 166 002a 33B9     		cbnz	r3, .L12
 257:User_App/app_display.c ****         OLED_ShowString(0, 32, "> NORMAL", OLED_8X16);
 167              		.loc 1 257 9 is_stmt 1 view .LVU21
 168 002c 0823     		movs	r3, #8
 169 002e 0A4A     		ldr	r2, .L15+16
 170 0030 2021     		movs	r1, #32
 171 0032 0020     		movs	r0, #0
 172 0034 FFF7FEFF 		bl	OLED_ShowString
 173              	.LVL13:
 174              	.L11:
 258:User_App/app_display.c ****     } else {
 259:User_App/app_display.c ****         OLED_ShowString(0, 32, "> DETAIL", OLED_8X16);
 260:User_App/app_display.c ****     }
 261:User_App/app_display.c **** }
 175              		.loc 1 261 1 is_stmt 0 view .LVU22
 176 0038 08BD     		pop	{r3, pc}
 177              	.L12:
 259:User_App/app_display.c ****     }
 178              		.loc 1 259 9 is_stmt 1 view .LVU23
 179 003a 0823     		movs	r3, #8
 180 003c 074A     		ldr	r2, .L15+20
 181 003e 2021     		movs	r1, #32
ARM GAS  C:\Users\bubble\AppData\Local\Temp\cc51e8AY.s 			page 9


 182 0040 0020     		movs	r0, #0
 183 0042 FFF7FEFF 		bl	OLED_ShowString
 184              	.LVL14:
 185              		.loc 1 261 1 is_stmt 0 view .LVU24
 186 0046 F7E7     		b	.L11
 187              	.L16:
 188              		.align	2
 189              	.L15:
 190 0048 00000000 		.word	.LC5
 191 004c 10000000 		.word	.LC6
 192 0050 20000000 		.word	.LC7
 193 0054 00000000 		.word	.LANCHOR0
 194 0058 34000000 		.word	.LC8
 195 005c 40000000 		.word	.LC9
 196              		.cfi_endproc
 197              	.LFE256:
 199              		.section	.rodata.App_Display_DrawAbout.str1.4,"aMS",%progbits,1
 200              		.align	2
 201              	.LC10:
 202 0000 4775616E 		.ascii	"GuanYu(About)\000"
 202      59752841 
 202      626F7574 
 202      2900
 203 000e 0000     		.align	2
 204              	.LC11:
 205 0010 4C435220 		.ascii	"LCR Meter v1\000"
 205      4D657465 
 205      72207631 
 205      00
 206 001d 000000   		.align	2
 207              	.LC12:
 208 0020 53544D33 		.ascii	"STM32F405 + AD9834\000"
 208      32463430 
 208      35202B20 
 208      41443938 
 208      333400
 209 0033 00       		.align	2
 210              	.LC13:
 211 0034 4951202B 		.ascii	"IQ + FreeRTOS\000"
 211      20467265 
 211      6552544F 
 211      5300
 212 0042 0000     		.align	2
 213              	.LC14:
 214 0044 4B312F4B 		.ascii	"K1/K2/K3/K4: back\000"
 214      322F4B33 
 214      2F4B343A 
 214      20626163 
 214      6B00
 215              		.section	.text.App_Display_DrawAbout,"ax",%progbits
 216              		.align	1
 217              		.syntax unified
 218              		.thumb
 219              		.thumb_func
 221              	App_Display_DrawAbout:
 222              	.LFB257:
 262:User_App/app_display.c **** 
ARM GAS  C:\Users\bubble\AppData\Local\Temp\cc51e8AY.s 			page 10


 263:User_App/app_display.c **** static void App_Display_DrawAbout(void)
 264:User_App/app_display.c **** {
 223              		.loc 1 264 1 is_stmt 1 view -0
 224              		.cfi_startproc
 225              		@ args = 0, pretend = 0, frame = 0
 226              		@ frame_needed = 0, uses_anonymous_args = 0
 227 0000 08B5     		push	{r3, lr}
 228              	.LCFI1:
 229              		.cfi_def_cfa_offset 8
 230              		.cfi_offset 3, -8
 231              		.cfi_offset 14, -4
 265:User_App/app_display.c ****     OLED_ShowString(0, 0, "GuanYu(About)", OLED_6X8);
 232              		.loc 1 265 5 view .LVU26
 233 0002 0623     		movs	r3, #6
 234 0004 0E4A     		ldr	r2, .L19
 235 0006 0021     		movs	r1, #0
 236 0008 0846     		mov	r0, r1
 237 000a FFF7FEFF 		bl	OLED_ShowString
 238              	.LVL15:
 266:User_App/app_display.c ****     OLED_ShowString(0, 8, "LCR Meter v1", OLED_6X8);
 239              		.loc 1 266 5 view .LVU27
 240 000e 0623     		movs	r3, #6
 241 0010 0C4A     		ldr	r2, .L19+4
 242 0012 0821     		movs	r1, #8
 243 0014 0020     		movs	r0, #0
 244 0016 FFF7FEFF 		bl	OLED_ShowString
 245              	.LVL16:
 267:User_App/app_display.c ****     OLED_ShowString(0, 16, "STM32F405 + AD9834", OLED_6X8);
 246              		.loc 1 267 5 view .LVU28
 247 001a 0623     		movs	r3, #6
 248 001c 0A4A     		ldr	r2, .L19+8
 249 001e 1021     		movs	r1, #16
 250 0020 0020     		movs	r0, #0
 251 0022 FFF7FEFF 		bl	OLED_ShowString
 252              	.LVL17:
 268:User_App/app_display.c ****     OLED_ShowString(0, 24, "IQ + FreeRTOS", OLED_6X8);
 253              		.loc 1 268 5 view .LVU29
 254 0026 0623     		movs	r3, #6
 255 0028 084A     		ldr	r2, .L19+12
 256 002a 1821     		movs	r1, #24
 257 002c 0020     		movs	r0, #0
 258 002e FFF7FEFF 		bl	OLED_ShowString
 259              	.LVL18:
 269:User_App/app_display.c ****     OLED_ShowString(0, 40, "K1/K2/K3/K4: back", OLED_6X8);
 260              		.loc 1 269 5 view .LVU30
 261 0032 0623     		movs	r3, #6
 262 0034 064A     		ldr	r2, .L19+16
 263 0036 2821     		movs	r1, #40
 264 0038 0020     		movs	r0, #0
 265 003a FFF7FEFF 		bl	OLED_ShowString
 266              	.LVL19:
 270:User_App/app_display.c **** }
 267              		.loc 1 270 1 is_stmt 0 view .LVU31
 268 003e 08BD     		pop	{r3, pc}
 269              	.L20:
 270              		.align	2
 271              	.L19:
ARM GAS  C:\Users\bubble\AppData\Local\Temp\cc51e8AY.s 			page 11


 272 0040 00000000 		.word	.LC10
 273 0044 10000000 		.word	.LC11
 274 0048 20000000 		.word	.LC12
 275 004c 34000000 		.word	.LC13
 276 0050 44000000 		.word	.LC14
 277              		.cfi_endproc
 278              	.LFE257:
 280              		.section	.text.App_Display_HandleCmd,"ax",%progbits
 281              		.align	1
 282              		.syntax unified
 283              		.thumb
 284              		.thumb_func
 286              	App_Display_HandleCmd:
 287              	.LVL20:
 288              	.LFB258:
 271:User_App/app_display.c **** 
 272:User_App/app_display.c **** static void App_Display_HandleCmd(KeyCmd_t cmd)
 273:User_App/app_display.c **** {
 289              		.loc 1 273 1 is_stmt 1 view -0
 290              		.cfi_startproc
 291              		@ args = 0, pretend = 0, frame = 0
 292              		@ frame_needed = 0, uses_anonymous_args = 0
 274:User_App/app_display.c ****     if (cmd == KEY_CMD_NONE) {
 293              		.loc 1 274 5 view .LVU33
 294              		.loc 1 274 8 is_stmt 0 view .LVU34
 295 0000 0028     		cmp	r0, #0
 296 0002 00F0C780 		beq	.L48
 273:User_App/app_display.c ****     if (cmd == KEY_CMD_NONE) {
 297              		.loc 1 273 1 view .LVU35
 298 0006 08B5     		push	{r3, lr}
 299              	.LCFI2:
 300              		.cfi_def_cfa_offset 8
 301              		.cfi_offset 3, -8
 302              		.cfi_offset 14, -4
 275:User_App/app_display.c ****         return;
 276:User_App/app_display.c ****     }
 277:User_App/app_display.c **** 
 278:User_App/app_display.c ****     switch (s_screen) {
 303              		.loc 1 278 5 is_stmt 1 view .LVU36
 304 0008 634A     		ldr	r2, .L65
 305 000a 1278     		ldrb	r2, [r2]	@ zero_extendqisi2
 306 000c 052A     		cmp	r2, #5
 307 000e 00F2BD80 		bhi	.L23
 308 0012 DFE802F0 		tbb	[pc, r2]
 309              	.L25:
 310 0016 03       		.byte	(.L30-.L25)/2
 311 0017 24       		.byte	(.L29-.L25)/2
 312 0018 59       		.byte	(.L28-.L25)/2
 313 0019 80       		.byte	(.L27-.L25)/2
 314 001a A3       		.byte	(.L26-.L25)/2
 315 001b B7       		.byte	(.L24-.L25)/2
 316              		.p2align 1
 317              	.L30:
 279:User_App/app_display.c ****     case SCREEN_MEASURE:
 280:User_App/app_display.c ****         if (cmd == KEY_CMD_KEY1_SHORT) {
 318              		.loc 1 280 9 view .LVU37
 319              		.loc 1 280 12 is_stmt 0 view .LVU38
ARM GAS  C:\Users\bubble\AppData\Local\Temp\cc51e8AY.s 			page 12


 320 001c 1128     		cmp	r0, #17
 321 001e 0BD0     		beq	.L51
 281:User_App/app_display.c ****             s_menu_index = 0u;
 282:User_App/app_display.c ****             s_screen = SCREEN_MENU;
 283:User_App/app_display.c ****         } else if (cmd == KEY_CMD_KEY4_SHORT) {
 322              		.loc 1 283 16 is_stmt 1 view .LVU39
 323              		.loc 1 283 19 is_stmt 0 view .LVU40
 324 0020 1428     		cmp	r0, #20
 325 0022 10D0     		beq	.L52
 284:User_App/app_display.c ****             s_freq_index = (uint8_t)((s_freq_index + 1u) % (sizeof(kFreqList) / sizeof(kFreqList[0]
 285:User_App/app_display.c ****             App_Measure_SetFreq(kFreqList[s_freq_index]);
 286:User_App/app_display.c ****         } else if (cmd == KEY_CMD_KEY2_SHORT) {
 326              		.loc 1 286 16 is_stmt 1 view .LVU41
 327              		.loc 1 286 19 is_stmt 0 view .LVU42
 328 0024 1228     		cmp	r0, #18
 329 0026 40F0B080 		bne	.L21
 287:User_App/app_display.c ****             s_disp_mode = (s_disp_mode == DISP_MODE_NORMAL) ? DISP_MODE_DETAIL : DISP_MODE_NORMAL;
 330              		.loc 1 287 13 is_stmt 1 view .LVU43
 331              		.loc 1 287 80 is_stmt 0 view .LVU44
 332 002a 5C4A     		ldr	r2, .L65+4
 333 002c 1378     		ldrb	r3, [r2]	@ zero_extendqisi2
 334 002e B3FA83F3 		clz	r3, r3
 335 0032 5B09     		lsrs	r3, r3, #5
 336              		.loc 1 287 25 view .LVU45
 337 0034 1370     		strb	r3, [r2]
 338 0036 A8E0     		b	.L21
 339              	.L51:
 281:User_App/app_display.c ****             s_menu_index = 0u;
 340              		.loc 1 281 13 is_stmt 1 view .LVU46
 281:User_App/app_display.c ****             s_menu_index = 0u;
 341              		.loc 1 281 26 is_stmt 0 view .LVU47
 342 0038 594B     		ldr	r3, .L65+8
 343 003a 0022     		movs	r2, #0
 344 003c 1A70     		strb	r2, [r3]
 282:User_App/app_display.c ****         } else if (cmd == KEY_CMD_KEY4_SHORT) {
 345              		.loc 1 282 13 is_stmt 1 view .LVU48
 282:User_App/app_display.c ****         } else if (cmd == KEY_CMD_KEY4_SHORT) {
 346              		.loc 1 282 22 is_stmt 0 view .LVU49
 347 003e 564B     		ldr	r3, .L65
 348 0040 0122     		movs	r2, #1
 349 0042 1A70     		strb	r2, [r3]
 350 0044 A1E0     		b	.L21
 351              	.L52:
 284:User_App/app_display.c ****             s_freq_index = (uint8_t)((s_freq_index + 1u) % (sizeof(kFreqList) / sizeof(kFreqList[0]
 352              		.loc 1 284 13 is_stmt 1 view .LVU50
 284:User_App/app_display.c ****             s_freq_index = (uint8_t)((s_freq_index + 1u) % (sizeof(kFreqList) / sizeof(kFreqList[0]
 353              		.loc 1 284 28 is_stmt 0 view .LVU51
 354 0046 574A     		ldr	r2, .L65+12
 355 0048 1378     		ldrb	r3, [r2]	@ zero_extendqisi2
 356 004a 0133     		adds	r3, r3, #1
 357 004c 03F00303 		and	r3, r3, #3
 284:User_App/app_display.c ****             s_freq_index = (uint8_t)((s_freq_index + 1u) % (sizeof(kFreqList) / sizeof(kFreqList[0]
 358              		.loc 1 284 26 view .LVU52
 359 0050 1370     		strb	r3, [r2]
 285:User_App/app_display.c ****         } else if (cmd == KEY_CMD_KEY2_SHORT) {
 360              		.loc 1 285 13 is_stmt 1 view .LVU53
 361 0052 554A     		ldr	r2, .L65+16
ARM GAS  C:\Users\bubble\AppData\Local\Temp\cc51e8AY.s 			page 13


 362 0054 52F82300 		ldr	r0, [r2, r3, lsl #2]
 363              	.LVL21:
 285:User_App/app_display.c ****         } else if (cmd == KEY_CMD_KEY2_SHORT) {
 364              		.loc 1 285 13 is_stmt 0 view .LVU54
 365 0058 FFF7FEFF 		bl	App_Measure_SetFreq
 366              	.LVL22:
 367 005c 95E0     		b	.L21
 368              	.LVL23:
 369              	.L29:
 288:User_App/app_display.c ****         }
 289:User_App/app_display.c ****         break;
 290:User_App/app_display.c **** 
 291:User_App/app_display.c ****     case SCREEN_MENU:
 292:User_App/app_display.c ****         if (cmd == KEY_CMD_KEY2_SHORT) {
 370              		.loc 1 292 9 is_stmt 1 view .LVU55
 371              		.loc 1 292 12 is_stmt 0 view .LVU56
 372 005e 1228     		cmp	r0, #18
 373 0060 0AD0     		beq	.L53
 293:User_App/app_display.c ****             if (s_menu_index > 0u) {
 294:User_App/app_display.c ****                 s_menu_index--;
 295:User_App/app_display.c ****             }
 296:User_App/app_display.c ****         } else if (cmd == KEY_CMD_KEY3_SHORT) {
 374              		.loc 1 296 16 is_stmt 1 view .LVU57
 375              		.loc 1 296 19 is_stmt 0 view .LVU58
 376 0062 1328     		cmp	r0, #19
 377 0064 11D0     		beq	.L54
 297:User_App/app_display.c ****             if (s_menu_index < 3u) {
 298:User_App/app_display.c ****                 s_menu_index++;
 299:User_App/app_display.c ****             }
 300:User_App/app_display.c ****         } else if (cmd == KEY_CMD_KEY1_SHORT) {
 378              		.loc 1 300 16 is_stmt 1 view .LVU59
 379              		.loc 1 300 19 is_stmt 0 view .LVU60
 380 0066 1128     		cmp	r0, #17
 381 0068 17D0     		beq	.L55
 301:User_App/app_display.c ****             if (s_menu_index == 0u) {
 302:User_App/app_display.c ****                 s_screen = SCREEN_SET_FREQ;
 303:User_App/app_display.c ****             } else if (s_menu_index == 1u) {
 304:User_App/app_display.c ****                 s_screen = SCREEN_SET_AMP;
 305:User_App/app_display.c ****             } else if (s_menu_index == 2u) {
 306:User_App/app_display.c ****                 s_screen = SCREEN_SET_DISPMODE;
 307:User_App/app_display.c ****             } else {
 308:User_App/app_display.c ****                 s_screen = SCREEN_ABOUT;
 309:User_App/app_display.c ****             }
 310:User_App/app_display.c ****         } else if (cmd == KEY_CMD_KEY1_LONG) {
 382              		.loc 1 310 16 is_stmt 1 view .LVU61
 383              		.loc 1 310 19 is_stmt 0 view .LVU62
 384 006a 2128     		cmp	r0, #33
 385 006c 40F08D80 		bne	.L21
 311:User_App/app_display.c ****             s_screen = SCREEN_MEASURE;
 386              		.loc 1 311 13 is_stmt 1 view .LVU63
 387              		.loc 1 311 22 is_stmt 0 view .LVU64
 388 0070 494B     		ldr	r3, .L65
 389 0072 0022     		movs	r2, #0
 390 0074 1A70     		strb	r2, [r3]
 391 0076 88E0     		b	.L21
 392              	.L53:
 293:User_App/app_display.c ****                 s_menu_index--;
ARM GAS  C:\Users\bubble\AppData\Local\Temp\cc51e8AY.s 			page 14


 393              		.loc 1 293 13 is_stmt 1 view .LVU65
 293:User_App/app_display.c ****                 s_menu_index--;
 394              		.loc 1 293 30 is_stmt 0 view .LVU66
 395 0078 494B     		ldr	r3, .L65+8
 396 007a 1B78     		ldrb	r3, [r3]	@ zero_extendqisi2
 293:User_App/app_display.c ****                 s_menu_index--;
 397              		.loc 1 293 16 view .LVU67
 398 007c 002B     		cmp	r3, #0
 399 007e 00F08480 		beq	.L21
 294:User_App/app_display.c ****             }
 400              		.loc 1 294 17 is_stmt 1 view .LVU68
 294:User_App/app_display.c ****             }
 401              		.loc 1 294 29 is_stmt 0 view .LVU69
 402 0082 013B     		subs	r3, r3, #1
 403 0084 464A     		ldr	r2, .L65+8
 404 0086 1370     		strb	r3, [r2]
 405 0088 7FE0     		b	.L21
 406              	.L54:
 297:User_App/app_display.c ****                 s_menu_index++;
 407              		.loc 1 297 13 is_stmt 1 view .LVU70
 297:User_App/app_display.c ****                 s_menu_index++;
 408              		.loc 1 297 30 is_stmt 0 view .LVU71
 409 008a 454B     		ldr	r3, .L65+8
 410 008c 1B78     		ldrb	r3, [r3]	@ zero_extendqisi2
 297:User_App/app_display.c ****                 s_menu_index++;
 411              		.loc 1 297 16 view .LVU72
 412 008e 022B     		cmp	r3, #2
 413 0090 7BD8     		bhi	.L21
 298:User_App/app_display.c ****             }
 414              		.loc 1 298 17 is_stmt 1 view .LVU73
 298:User_App/app_display.c ****             }
 415              		.loc 1 298 29 is_stmt 0 view .LVU74
 416 0092 0133     		adds	r3, r3, #1
 417 0094 424A     		ldr	r2, .L65+8
 418 0096 1370     		strb	r3, [r2]
 419 0098 77E0     		b	.L21
 420              	.L55:
 301:User_App/app_display.c ****                 s_screen = SCREEN_SET_FREQ;
 421              		.loc 1 301 13 is_stmt 1 view .LVU75
 301:User_App/app_display.c ****                 s_screen = SCREEN_SET_FREQ;
 422              		.loc 1 301 30 is_stmt 0 view .LVU76
 423 009a 414B     		ldr	r3, .L65+8
 424 009c 1B78     		ldrb	r3, [r3]	@ zero_extendqisi2
 301:User_App/app_display.c ****                 s_screen = SCREEN_SET_FREQ;
 425              		.loc 1 301 16 view .LVU77
 426 009e 1BB9     		cbnz	r3, .L36
 302:User_App/app_display.c ****             } else if (s_menu_index == 1u) {
 427              		.loc 1 302 17 is_stmt 1 view .LVU78
 302:User_App/app_display.c ****             } else if (s_menu_index == 1u) {
 428              		.loc 1 302 26 is_stmt 0 view .LVU79
 429 00a0 3D4B     		ldr	r3, .L65
 430 00a2 0222     		movs	r2, #2
 431 00a4 1A70     		strb	r2, [r3]
 432 00a6 70E0     		b	.L21
 433              	.L36:
 303:User_App/app_display.c ****                 s_screen = SCREEN_SET_AMP;
 434              		.loc 1 303 20 is_stmt 1 view .LVU80
ARM GAS  C:\Users\bubble\AppData\Local\Temp\cc51e8AY.s 			page 15


 303:User_App/app_display.c ****                 s_screen = SCREEN_SET_AMP;
 435              		.loc 1 303 23 is_stmt 0 view .LVU81
 436 00a8 012B     		cmp	r3, #1
 437 00aa 05D0     		beq	.L56
 305:User_App/app_display.c ****                 s_screen = SCREEN_SET_DISPMODE;
 438              		.loc 1 305 20 is_stmt 1 view .LVU82
 305:User_App/app_display.c ****                 s_screen = SCREEN_SET_DISPMODE;
 439              		.loc 1 305 23 is_stmt 0 view .LVU83
 440 00ac 022B     		cmp	r3, #2
 441 00ae 07D0     		beq	.L57
 308:User_App/app_display.c ****             }
 442              		.loc 1 308 17 is_stmt 1 view .LVU84
 308:User_App/app_display.c ****             }
 443              		.loc 1 308 26 is_stmt 0 view .LVU85
 444 00b0 394B     		ldr	r3, .L65
 445 00b2 0522     		movs	r2, #5
 446 00b4 1A70     		strb	r2, [r3]
 447 00b6 68E0     		b	.L21
 448              	.L56:
 304:User_App/app_display.c ****             } else if (s_menu_index == 2u) {
 449              		.loc 1 304 17 is_stmt 1 view .LVU86
 304:User_App/app_display.c ****             } else if (s_menu_index == 2u) {
 450              		.loc 1 304 26 is_stmt 0 view .LVU87
 451 00b8 374B     		ldr	r3, .L65
 452 00ba 0322     		movs	r2, #3
 453 00bc 1A70     		strb	r2, [r3]
 454 00be 64E0     		b	.L21
 455              	.L57:
 306:User_App/app_display.c ****             } else {
 456              		.loc 1 306 17 is_stmt 1 view .LVU88
 306:User_App/app_display.c ****             } else {
 457              		.loc 1 306 26 is_stmt 0 view .LVU89
 458 00c0 354B     		ldr	r3, .L65
 459 00c2 0422     		movs	r2, #4
 460 00c4 1A70     		strb	r2, [r3]
 461 00c6 60E0     		b	.L21
 462              	.L28:
 312:User_App/app_display.c ****         }
 313:User_App/app_display.c ****         break;
 314:User_App/app_display.c **** 
 315:User_App/app_display.c ****     case SCREEN_SET_FREQ:
 316:User_App/app_display.c ****         if (cmd == KEY_CMD_KEY2_SHORT) {
 463              		.loc 1 316 9 is_stmt 1 view .LVU90
 464              		.loc 1 316 12 is_stmt 0 view .LVU91
 465 00c8 1228     		cmp	r0, #18
 466 00ca 09D0     		beq	.L58
 317:User_App/app_display.c ****             if (s_freq_index > 0u) {
 318:User_App/app_display.c ****                 s_freq_index--;
 319:User_App/app_display.c ****             }
 320:User_App/app_display.c ****         } else if (cmd == KEY_CMD_KEY3_SHORT) {
 467              		.loc 1 320 16 is_stmt 1 view .LVU92
 468              		.loc 1 320 19 is_stmt 0 view .LVU93
 469 00cc 1328     		cmp	r0, #19
 470 00ce 0FD0     		beq	.L59
 321:User_App/app_display.c ****             if (s_freq_index < ((sizeof(kFreqList) / sizeof(kFreqList[0])) - 1u)) {
 322:User_App/app_display.c ****                 s_freq_index++;
 323:User_App/app_display.c ****             }
ARM GAS  C:\Users\bubble\AppData\Local\Temp\cc51e8AY.s 			page 16


 324:User_App/app_display.c ****         } else if (cmd == KEY_CMD_KEY1_SHORT) {
 471              		.loc 1 324 16 is_stmt 1 view .LVU94
 472              		.loc 1 324 19 is_stmt 0 view .LVU95
 473 00d0 1128     		cmp	r0, #17
 474 00d2 15D0     		beq	.L60
 325:User_App/app_display.c ****             App_Measure_SetFreq(kFreqList[s_freq_index]);
 326:User_App/app_display.c ****             s_screen = SCREEN_MENU;
 327:User_App/app_display.c ****         } else if (cmd == KEY_CMD_KEY1_LONG) {
 475              		.loc 1 327 16 is_stmt 1 view .LVU96
 476              		.loc 1 327 19 is_stmt 0 view .LVU97
 477 00d4 2128     		cmp	r0, #33
 478 00d6 58D1     		bne	.L21
 328:User_App/app_display.c ****             s_screen = SCREEN_MENU;
 479              		.loc 1 328 13 is_stmt 1 view .LVU98
 480              		.loc 1 328 22 is_stmt 0 view .LVU99
 481 00d8 2F4B     		ldr	r3, .L65
 482 00da 0122     		movs	r2, #1
 483 00dc 1A70     		strb	r2, [r3]
 484 00de 54E0     		b	.L21
 485              	.L58:
 317:User_App/app_display.c ****                 s_freq_index--;
 486              		.loc 1 317 13 is_stmt 1 view .LVU100
 317:User_App/app_display.c ****                 s_freq_index--;
 487              		.loc 1 317 30 is_stmt 0 view .LVU101
 488 00e0 304B     		ldr	r3, .L65+12
 489 00e2 1B78     		ldrb	r3, [r3]	@ zero_extendqisi2
 317:User_App/app_display.c ****                 s_freq_index--;
 490              		.loc 1 317 16 view .LVU102
 491 00e4 002B     		cmp	r3, #0
 492 00e6 50D0     		beq	.L21
 318:User_App/app_display.c ****             }
 493              		.loc 1 318 17 is_stmt 1 view .LVU103
 318:User_App/app_display.c ****             }
 494              		.loc 1 318 29 is_stmt 0 view .LVU104
 495 00e8 013B     		subs	r3, r3, #1
 496 00ea 2E4A     		ldr	r2, .L65+12
 497 00ec 1370     		strb	r3, [r2]
 498 00ee 4CE0     		b	.L21
 499              	.L59:
 321:User_App/app_display.c ****                 s_freq_index++;
 500              		.loc 1 321 13 is_stmt 1 view .LVU105
 321:User_App/app_display.c ****                 s_freq_index++;
 501              		.loc 1 321 30 is_stmt 0 view .LVU106
 502 00f0 2C4B     		ldr	r3, .L65+12
 503 00f2 1B78     		ldrb	r3, [r3]	@ zero_extendqisi2
 321:User_App/app_display.c ****                 s_freq_index++;
 504              		.loc 1 321 16 view .LVU107
 505 00f4 022B     		cmp	r3, #2
 506 00f6 48D8     		bhi	.L21
 322:User_App/app_display.c ****             }
 507              		.loc 1 322 17 is_stmt 1 view .LVU108
 322:User_App/app_display.c ****             }
 508              		.loc 1 322 29 is_stmt 0 view .LVU109
 509 00f8 0133     		adds	r3, r3, #1
 510 00fa 2A4A     		ldr	r2, .L65+12
 511 00fc 1370     		strb	r3, [r2]
 512 00fe 44E0     		b	.L21
ARM GAS  C:\Users\bubble\AppData\Local\Temp\cc51e8AY.s 			page 17


 513              	.L60:
 325:User_App/app_display.c ****             s_screen = SCREEN_MENU;
 514              		.loc 1 325 13 is_stmt 1 view .LVU110
 515 0100 284B     		ldr	r3, .L65+12
 516 0102 1A78     		ldrb	r2, [r3]	@ zero_extendqisi2
 517 0104 284B     		ldr	r3, .L65+16
 518 0106 53F82200 		ldr	r0, [r3, r2, lsl #2]
 519              	.LVL24:
 325:User_App/app_display.c ****             s_screen = SCREEN_MENU;
 520              		.loc 1 325 13 is_stmt 0 view .LVU111
 521 010a FFF7FEFF 		bl	App_Measure_SetFreq
 522              	.LVL25:
 326:User_App/app_display.c ****         } else if (cmd == KEY_CMD_KEY1_LONG) {
 523              		.loc 1 326 13 is_stmt 1 view .LVU112
 326:User_App/app_display.c ****         } else if (cmd == KEY_CMD_KEY1_LONG) {
 524              		.loc 1 326 22 is_stmt 0 view .LVU113
 525 010e 224B     		ldr	r3, .L65
 526 0110 0122     		movs	r2, #1
 527 0112 1A70     		strb	r2, [r3]
 528 0114 39E0     		b	.L21
 529              	.LVL26:
 530              	.L27:
 329:User_App/app_display.c ****         }
 330:User_App/app_display.c ****         break;
 331:User_App/app_display.c **** 
 332:User_App/app_display.c ****     case SCREEN_SET_AMP:
 333:User_App/app_display.c ****         if (cmd == KEY_CMD_KEY2_SHORT) {
 531              		.loc 1 333 9 is_stmt 1 view .LVU114
 532              		.loc 1 333 12 is_stmt 0 view .LVU115
 533 0116 1228     		cmp	r0, #18
 534 0118 09D0     		beq	.L61
 334:User_App/app_display.c ****             if (s_amp_index > 0u) {
 335:User_App/app_display.c ****                 s_amp_index--;
 336:User_App/app_display.c ****             }
 337:User_App/app_display.c ****         } else if (cmd == KEY_CMD_KEY3_SHORT) {
 535              		.loc 1 337 16 is_stmt 1 view .LVU116
 536              		.loc 1 337 19 is_stmt 0 view .LVU117
 537 011a 1328     		cmp	r0, #19
 538 011c 0ED0     		beq	.L62
 338:User_App/app_display.c ****             if (s_amp_index < ((sizeof(kAmpStr) / sizeof(kAmpStr[0])) - 1u)) {
 339:User_App/app_display.c ****                 s_amp_index++;
 340:User_App/app_display.c ****             }
 341:User_App/app_display.c ****         } else if (cmd == KEY_CMD_KEY1_SHORT) {
 539              		.loc 1 341 16 is_stmt 1 view .LVU118
 540              		.loc 1 341 19 is_stmt 0 view .LVU119
 541 011e 1128     		cmp	r0, #17
 542 0120 14D0     		beq	.L63
 342:User_App/app_display.c ****             BSP_AFE_SetDDSAmp((AFE_DDS_Amp_t)s_amp_index);
 343:User_App/app_display.c ****             s_screen = SCREEN_MENU;
 344:User_App/app_display.c ****         } else if (cmd == KEY_CMD_KEY1_LONG) {
 543              		.loc 1 344 16 is_stmt 1 view .LVU120
 544              		.loc 1 344 19 is_stmt 0 view .LVU121
 545 0122 2128     		cmp	r0, #33
 546 0124 31D1     		bne	.L21
 345:User_App/app_display.c ****             s_screen = SCREEN_MENU;
 547              		.loc 1 345 13 is_stmt 1 view .LVU122
 548              		.loc 1 345 22 is_stmt 0 view .LVU123
ARM GAS  C:\Users\bubble\AppData\Local\Temp\cc51e8AY.s 			page 18


 549 0126 1C4B     		ldr	r3, .L65
 550 0128 0122     		movs	r2, #1
 551 012a 1A70     		strb	r2, [r3]
 552 012c 2DE0     		b	.L21
 553              	.L61:
 334:User_App/app_display.c ****                 s_amp_index--;
 554              		.loc 1 334 13 is_stmt 1 view .LVU124
 334:User_App/app_display.c ****                 s_amp_index--;
 555              		.loc 1 334 29 is_stmt 0 view .LVU125
 556 012e 1F4B     		ldr	r3, .L65+20
 557 0130 1B78     		ldrb	r3, [r3]	@ zero_extendqisi2
 334:User_App/app_display.c ****                 s_amp_index--;
 558              		.loc 1 334 16 view .LVU126
 559 0132 53B3     		cbz	r3, .L21
 335:User_App/app_display.c ****             }
 560              		.loc 1 335 17 is_stmt 1 view .LVU127
 335:User_App/app_display.c ****             }
 561              		.loc 1 335 28 is_stmt 0 view .LVU128
 562 0134 013B     		subs	r3, r3, #1
 563 0136 1D4A     		ldr	r2, .L65+20
 564 0138 1370     		strb	r3, [r2]
 565 013a 26E0     		b	.L21
 566              	.L62:
 338:User_App/app_display.c ****                 s_amp_index++;
 567              		.loc 1 338 13 is_stmt 1 view .LVU129
 338:User_App/app_display.c ****                 s_amp_index++;
 568              		.loc 1 338 29 is_stmt 0 view .LVU130
 569 013c 1B4B     		ldr	r3, .L65+20
 570 013e 1B78     		ldrb	r3, [r3]	@ zero_extendqisi2
 338:User_App/app_display.c ****                 s_amp_index++;
 571              		.loc 1 338 16 view .LVU131
 572 0140 012B     		cmp	r3, #1
 573 0142 22D8     		bhi	.L21
 339:User_App/app_display.c ****             }
 574              		.loc 1 339 17 is_stmt 1 view .LVU132
 339:User_App/app_display.c ****             }
 575              		.loc 1 339 28 is_stmt 0 view .LVU133
 576 0144 0133     		adds	r3, r3, #1
 577 0146 194A     		ldr	r2, .L65+20
 578 0148 1370     		strb	r3, [r2]
 579 014a 1EE0     		b	.L21
 580              	.L63:
 342:User_App/app_display.c ****             s_screen = SCREEN_MENU;
 581              		.loc 1 342 13 is_stmt 1 view .LVU134
 582 014c 174B     		ldr	r3, .L65+20
 583 014e 1878     		ldrb	r0, [r3]	@ zero_extendqisi2
 584              	.LVL27:
 342:User_App/app_display.c ****             s_screen = SCREEN_MENU;
 585              		.loc 1 342 13 is_stmt 0 view .LVU135
 586 0150 FFF7FEFF 		bl	BSP_AFE_SetDDSAmp
 587              	.LVL28:
 343:User_App/app_display.c ****         } else if (cmd == KEY_CMD_KEY1_LONG) {
 588              		.loc 1 343 13 is_stmt 1 view .LVU136
 343:User_App/app_display.c ****         } else if (cmd == KEY_CMD_KEY1_LONG) {
 589              		.loc 1 343 22 is_stmt 0 view .LVU137
 590 0154 104B     		ldr	r3, .L65
 591 0156 0122     		movs	r2, #1
ARM GAS  C:\Users\bubble\AppData\Local\Temp\cc51e8AY.s 			page 19


 592 0158 1A70     		strb	r2, [r3]
 593 015a 16E0     		b	.L21
 594              	.LVL29:
 595              	.L26:
 346:User_App/app_display.c ****         }
 347:User_App/app_display.c ****         break;
 348:User_App/app_display.c **** 
 349:User_App/app_display.c ****     case SCREEN_SET_DISPMODE:
 350:User_App/app_display.c ****         if ((cmd == KEY_CMD_KEY2_SHORT) || (cmd == KEY_CMD_KEY3_SHORT)) {
 596              		.loc 1 350 9 is_stmt 1 view .LVU138
 597              		.loc 1 350 41 is_stmt 0 view .LVU139
 598 015c A0F11202 		sub	r2, r0, #18
 599 0160 D2B2     		uxtb	r2, r2
 600              		.loc 1 350 12 view .LVU140
 601 0162 012A     		cmp	r2, #1
 602 0164 07D9     		bls	.L64
 351:User_App/app_display.c ****             s_disp_mode = (s_disp_mode == DISP_MODE_NORMAL) ? DISP_MODE_DETAIL : DISP_MODE_NORMAL;
 352:User_App/app_display.c ****         } else if ((cmd == KEY_CMD_KEY1_SHORT) || (cmd == KEY_CMD_KEY1_LONG)) {
 603              		.loc 1 352 16 is_stmt 1 view .LVU141
 604              		.loc 1 352 19 is_stmt 0 view .LVU142
 605 0166 1128     		cmp	r0, #17
 606 0168 01D0     		beq	.L46
 607              		.loc 1 352 48 discriminator 1 view .LVU143
 608 016a 2128     		cmp	r0, #33
 609 016c 0DD1     		bne	.L21
 610              	.L46:
 353:User_App/app_display.c ****             s_screen = SCREEN_MENU;
 611              		.loc 1 353 13 is_stmt 1 view .LVU144
 612              		.loc 1 353 22 is_stmt 0 view .LVU145
 613 016e 0A4B     		ldr	r3, .L65
 614 0170 0122     		movs	r2, #1
 615 0172 1A70     		strb	r2, [r3]
 616 0174 09E0     		b	.L21
 617              	.L64:
 351:User_App/app_display.c ****             s_disp_mode = (s_disp_mode == DISP_MODE_NORMAL) ? DISP_MODE_DETAIL : DISP_MODE_NORMAL;
 618              		.loc 1 351 13 is_stmt 1 view .LVU146
 351:User_App/app_display.c ****             s_disp_mode = (s_disp_mode == DISP_MODE_NORMAL) ? DISP_MODE_DETAIL : DISP_MODE_NORMAL;
 619              		.loc 1 351 80 is_stmt 0 view .LVU147
 620 0176 094A     		ldr	r2, .L65+4
 621 0178 1378     		ldrb	r3, [r2]	@ zero_extendqisi2
 622 017a B3FA83F3 		clz	r3, r3
 623 017e 5B09     		lsrs	r3, r3, #5
 351:User_App/app_display.c ****             s_disp_mode = (s_disp_mode == DISP_MODE_NORMAL) ? DISP_MODE_DETAIL : DISP_MODE_NORMAL;
 624              		.loc 1 351 25 view .LVU148
 625 0180 1370     		strb	r3, [r2]
 626 0182 02E0     		b	.L21
 627              	.L24:
 354:User_App/app_display.c ****         }
 355:User_App/app_display.c ****         break;
 356:User_App/app_display.c **** 
 357:User_App/app_display.c ****     case SCREEN_ABOUT:
 358:User_App/app_display.c ****         s_screen = SCREEN_MENU;
 628              		.loc 1 358 9 is_stmt 1 view .LVU149
 629              		.loc 1 358 18 is_stmt 0 view .LVU150
 630 0184 044B     		ldr	r3, .L65
 631 0186 0122     		movs	r2, #1
 632 0188 1A70     		strb	r2, [r3]
ARM GAS  C:\Users\bubble\AppData\Local\Temp\cc51e8AY.s 			page 20


 359:User_App/app_display.c ****         break;
 633              		.loc 1 359 9 is_stmt 1 view .LVU151
 634              	.LVL30:
 635              	.L21:
 360:User_App/app_display.c **** 
 361:User_App/app_display.c ****     default:
 362:User_App/app_display.c ****         s_screen = SCREEN_MEASURE;
 363:User_App/app_display.c ****         break;
 364:User_App/app_display.c ****     }
 365:User_App/app_display.c **** }
 636              		.loc 1 365 1 is_stmt 0 view .LVU152
 637 018a 08BD     		pop	{r3, pc}
 638              	.LVL31:
 639              	.L23:
 362:User_App/app_display.c ****         break;
 640              		.loc 1 362 9 is_stmt 1 view .LVU153
 362:User_App/app_display.c ****         break;
 641              		.loc 1 362 18 is_stmt 0 view .LVU154
 642 018c 024B     		ldr	r3, .L65
 643 018e 0022     		movs	r2, #0
 644 0190 1A70     		strb	r2, [r3]
 363:User_App/app_display.c ****     }
 645              		.loc 1 363 9 is_stmt 1 view .LVU155
 646 0192 FAE7     		b	.L21
 647              	.L48:
 648              	.LCFI3:
 649              		.cfi_def_cfa_offset 0
 650              		.cfi_restore 3
 651              		.cfi_restore 14
 652 0194 7047     		bx	lr
 653              	.L66:
 654 0196 00BF     		.align	2
 655              	.L65:
 656 0198 00000000 		.word	.LANCHOR1
 657 019c 00000000 		.word	.LANCHOR0
 658 01a0 00000000 		.word	.LANCHOR2
 659 01a4 00000000 		.word	.LANCHOR3
 660 01a8 00000000 		.word	.LANCHOR4
 661 01ac 00000000 		.word	.LANCHOR5
 662              		.cfi_endproc
 663              	.LFE258:
 665              		.section	.rodata.App_Display_FormatCap.str1.4,"aMS",%progbits,1
 666              		.align	2
 667              	.LC15:
 668 0000 252E3366 		.ascii	"%.3fmF\000"
 668      6D4600
 669              		.global	__aeabi_f2d
 670 0007 00       		.align	2
 671              	.LC16:
 672 0008 252E3366 		.ascii	"%.3fuF\000"
 672      754600
 673 000f 00       		.align	2
 674              	.LC17:
 675 0010 252E3366 		.ascii	"%.3fnF\000"
 675      6E4600
 676 0017 00       		.align	2
 677              	.LC18:
ARM GAS  C:\Users\bubble\AppData\Local\Temp\cc51e8AY.s 			page 21


 678 0018 252E3266 		.ascii	"%.2fpF\000"
 678      704600
 679              		.section	.text.App_Display_FormatCap,"ax",%progbits
 680              		.align	1
 681              		.syntax unified
 682              		.thumb
 683              		.thumb_func
 685              	App_Display_FormatCap:
 686              	.LVL32:
 687              	.LFB248:
  70:User_App/app_display.c ****     float absv = fabsf(value);
 688              		.loc 1 70 1 view -0
 689              		.cfi_startproc
 690              		@ args = 0, pretend = 0, frame = 0
 691              		@ frame_needed = 0, uses_anonymous_args = 0
  70:User_App/app_display.c ****     float absv = fabsf(value);
 692              		.loc 1 70 1 is_stmt 0 view .LVU157
 693 0000 30B5     		push	{r4, r5, lr}
 694              	.LCFI4:
 695              		.cfi_def_cfa_offset 12
 696              		.cfi_offset 4, -12
 697              		.cfi_offset 5, -8
 698              		.cfi_offset 14, -4
 699 0002 83B0     		sub	sp, sp, #12
 700              	.LCFI5:
 701              		.cfi_def_cfa_offset 24
 702 0004 0546     		mov	r5, r0
 703 0006 0C46     		mov	r4, r1
  71:User_App/app_display.c **** 
 704              		.loc 1 71 5 is_stmt 1 view .LVU158
  71:User_App/app_display.c **** 
 705              		.loc 1 71 11 is_stmt 0 view .LVU159
 706 0008 F0EEC07A 		vabs.f32	s15, s0
 707              	.LVL33:
  73:User_App/app_display.c ****         snprintf(buf, len, "%.3fmF", value * 1e3f);
 708              		.loc 1 73 5 is_stmt 1 view .LVU160
  73:User_App/app_display.c ****         snprintf(buf, len, "%.3fmF", value * 1e3f);
 709              		.loc 1 73 8 is_stmt 0 view .LVU161
 710 000c 9FED2A7A 		vldr.32	s14, .L84
 711 0010 F4EEC77A 		vcmpe.f32	s15, s14
 712 0014 F1EE10FA 		vmrs	APSR_nzcv, FPSCR
 713 0018 1DDA     		bge	.L82
  75:User_App/app_display.c ****         snprintf(buf, len, "%.3fuF", value * 1e6f);
 714              		.loc 1 75 12 is_stmt 1 view .LVU162
  75:User_App/app_display.c ****         snprintf(buf, len, "%.3fuF", value * 1e6f);
 715              		.loc 1 75 15 is_stmt 0 view .LVU163
 716 001a 9FED287A 		vldr.32	s14, .L84+4
 717 001e F4EEC77A 		vcmpe.f32	s15, s14
 718 0022 F1EE10FA 		vmrs	APSR_nzcv, FPSCR
 719 0026 27DA     		bge	.L83
  77:User_App/app_display.c ****         snprintf(buf, len, "%.3fnF", value * 1e9f);
 720              		.loc 1 77 12 is_stmt 1 view .LVU164
  77:User_App/app_display.c ****         snprintf(buf, len, "%.3fnF", value * 1e9f);
 721              		.loc 1 77 15 is_stmt 0 view .LVU165
 722 0028 9FED257A 		vldr.32	s14, .L84+8
 723 002c F4EEC77A 		vcmpe.f32	s15, s14
 724 0030 F1EE10FA 		vmrs	APSR_nzcv, FPSCR
ARM GAS  C:\Users\bubble\AppData\Local\Temp\cc51e8AY.s 			page 22


 725 0034 30DB     		blt	.L80
  78:User_App/app_display.c ****     } else {
 726              		.loc 1 78 9 is_stmt 1 view .LVU166
 727 0036 DFED237A 		vldr.32	s15, .L84+12
 728              	.LVL34:
  78:User_App/app_display.c ****     } else {
 729              		.loc 1 78 9 is_stmt 0 view .LVU167
 730 003a 60EE277A 		vmul.f32	s15, s0, s15
 731 003e 17EE900A 		vmov	r0, s15
 732              	.LVL35:
  78:User_App/app_display.c ****     } else {
 733              		.loc 1 78 9 view .LVU168
 734 0042 FFF7FEFF 		bl	__aeabi_f2d
 735              	.LVL36:
  78:User_App/app_display.c ****     } else {
 736              		.loc 1 78 9 view .LVU169
 737 0046 CDE90001 		strd	r0, [sp]
 738 004a 1F4A     		ldr	r2, .L84+16
 739 004c 2146     		mov	r1, r4
 740 004e 2846     		mov	r0, r5
 741 0050 FFF7FEFF 		bl	snprintf
 742              	.LVL37:
 743 0054 0EE0     		b	.L67
 744              	.LVL38:
 745              	.L82:
  74:User_App/app_display.c ****     } else if (absv >= 1e-6f) {
 746              		.loc 1 74 9 is_stmt 1 view .LVU170
 747 0056 DFED1D7A 		vldr.32	s15, .L84+20
 748              	.LVL39:
  74:User_App/app_display.c ****     } else if (absv >= 1e-6f) {
 749              		.loc 1 74 9 is_stmt 0 view .LVU171
 750 005a 60EE277A 		vmul.f32	s15, s0, s15
 751 005e 17EE900A 		vmov	r0, s15
 752              	.LVL40:
  74:User_App/app_display.c ****     } else if (absv >= 1e-6f) {
 753              		.loc 1 74 9 view .LVU172
 754 0062 FFF7FEFF 		bl	__aeabi_f2d
 755              	.LVL41:
  74:User_App/app_display.c ****     } else if (absv >= 1e-6f) {
 756              		.loc 1 74 9 view .LVU173
 757 0066 CDE90001 		strd	r0, [sp]
 758 006a 194A     		ldr	r2, .L84+24
 759 006c 2146     		mov	r1, r4
 760 006e 2846     		mov	r0, r5
 761 0070 FFF7FEFF 		bl	snprintf
 762              	.LVL42:
 763              	.L67:
  82:User_App/app_display.c **** 
 764              		.loc 1 82 1 view .LVU174
 765 0074 03B0     		add	sp, sp, #12
 766              	.LCFI6:
 767              		.cfi_remember_state
 768              		.cfi_def_cfa_offset 12
 769              		@ sp needed
 770 0076 30BD     		pop	{r4, r5, pc}
 771              	.LVL43:
 772              	.L83:
ARM GAS  C:\Users\bubble\AppData\Local\Temp\cc51e8AY.s 			page 23


 773              	.LCFI7:
 774              		.cfi_restore_state
  76:User_App/app_display.c ****     } else if (absv >= 1e-9f) {
 775              		.loc 1 76 9 is_stmt 1 view .LVU175
 776 0078 DFED167A 		vldr.32	s15, .L84+28
 777              	.LVL44:
  76:User_App/app_display.c ****     } else if (absv >= 1e-9f) {
 778              		.loc 1 76 9 is_stmt 0 view .LVU176
 779 007c 60EE277A 		vmul.f32	s15, s0, s15
 780 0080 17EE900A 		vmov	r0, s15
 781              	.LVL45:
  76:User_App/app_display.c ****     } else if (absv >= 1e-9f) {
 782              		.loc 1 76 9 view .LVU177
 783 0084 FFF7FEFF 		bl	__aeabi_f2d
 784              	.LVL46:
  76:User_App/app_display.c ****     } else if (absv >= 1e-9f) {
 785              		.loc 1 76 9 view .LVU178
 786 0088 CDE90001 		strd	r0, [sp]
 787 008c 124A     		ldr	r2, .L84+32
 788 008e 2146     		mov	r1, r4
 789 0090 2846     		mov	r0, r5
 790 0092 FFF7FEFF 		bl	snprintf
 791              	.LVL47:
 792 0096 EDE7     		b	.L67
 793              	.LVL48:
 794              	.L80:
  80:User_App/app_display.c ****     }
 795              		.loc 1 80 9 is_stmt 1 view .LVU179
 796 0098 DFED107A 		vldr.32	s15, .L84+36
 797              	.LVL49:
  80:User_App/app_display.c ****     }
 798              		.loc 1 80 9 is_stmt 0 view .LVU180
 799 009c 60EE277A 		vmul.f32	s15, s0, s15
 800 00a0 17EE900A 		vmov	r0, s15
 801              	.LVL50:
  80:User_App/app_display.c ****     }
 802              		.loc 1 80 9 view .LVU181
 803 00a4 FFF7FEFF 		bl	__aeabi_f2d
 804              	.LVL51:
  80:User_App/app_display.c ****     }
 805              		.loc 1 80 9 view .LVU182
 806 00a8 CDE90001 		strd	r0, [sp]
 807 00ac 0C4A     		ldr	r2, .L84+40
 808 00ae 2146     		mov	r1, r4
 809 00b0 2846     		mov	r0, r5
 810 00b2 FFF7FEFF 		bl	snprintf
 811              	.LVL52:
  82:User_App/app_display.c **** 
 812              		.loc 1 82 1 view .LVU183
 813 00b6 DDE7     		b	.L67
 814              	.L85:
 815              		.align	2
 816              	.L84:
 817 00b8 6F12833A 		.word	981668463
 818 00bc BD378635 		.word	897988541
 819 00c0 5F708930 		.word	814313567
 820 00c4 286B6E4E 		.word	1315859240
ARM GAS  C:\Users\bubble\AppData\Local\Temp\cc51e8AY.s 			page 24


 821 00c8 10000000 		.word	.LC17
 822 00cc 00007A44 		.word	1148846080
 823 00d0 00000000 		.word	.LC15
 824 00d4 00247449 		.word	1232348160
 825 00d8 08000000 		.word	.LC16
 826 00dc A5D46853 		.word	1399379109
 827 00e0 18000000 		.word	.LC18
 828              		.cfi_endproc
 829              	.LFE248:
 831              		.section	.rodata.App_Display_FormatInd.str1.4,"aMS",%progbits,1
 832              		.align	2
 833              	.LC19:
 834 0000 252E3366 		.ascii	"%.3fH\000"
 834      4800
 835 0006 0000     		.align	2
 836              	.LC20:
 837 0008 252E3366 		.ascii	"%.3fmH\000"
 837      6D4800
 838 000f 00       		.align	2
 839              	.LC21:
 840 0010 252E3366 		.ascii	"%.3fuH\000"
 840      754800
 841 0017 00       		.align	2
 842              	.LC22:
 843 0018 252E3266 		.ascii	"%.2fnH\000"
 843      6E4800
 844              		.section	.text.App_Display_FormatInd,"ax",%progbits
 845              		.align	1
 846              		.syntax unified
 847              		.thumb
 848              		.thumb_func
 850              	App_Display_FormatInd:
 851              	.LVL53:
 852              	.LFB249:
  85:User_App/app_display.c ****     float absv = fabsf(value);
 853              		.loc 1 85 1 is_stmt 1 view -0
 854              		.cfi_startproc
 855              		@ args = 0, pretend = 0, frame = 0
 856              		@ frame_needed = 0, uses_anonymous_args = 0
  85:User_App/app_display.c ****     float absv = fabsf(value);
 857              		.loc 1 85 1 is_stmt 0 view .LVU185
 858 0000 30B5     		push	{r4, r5, lr}
 859              	.LCFI8:
 860              		.cfi_def_cfa_offset 12
 861              		.cfi_offset 4, -12
 862              		.cfi_offset 5, -8
 863              		.cfi_offset 14, -4
 864 0002 83B0     		sub	sp, sp, #12
 865              	.LCFI9:
 866              		.cfi_def_cfa_offset 24
 867 0004 0546     		mov	r5, r0
 868 0006 0C46     		mov	r4, r1
  86:User_App/app_display.c **** 
 869              		.loc 1 86 5 is_stmt 1 view .LVU186
  86:User_App/app_display.c **** 
 870              		.loc 1 86 11 is_stmt 0 view .LVU187
 871 0008 F0EEC07A 		vabs.f32	s15, s0
ARM GAS  C:\Users\bubble\AppData\Local\Temp\cc51e8AY.s 			page 25


 872              	.LVL54:
  88:User_App/app_display.c ****         snprintf(buf, len, "%.3fH", value);
 873              		.loc 1 88 5 is_stmt 1 view .LVU188
  88:User_App/app_display.c ****         snprintf(buf, len, "%.3fH", value);
 874              		.loc 1 88 8 is_stmt 0 view .LVU189
 875 000c B7EE007A 		vmov.f32	s14, #1.0e+0
 876 0010 F4EEC77A 		vcmpe.f32	s15, s14
 877 0014 F1EE10FA 		vmrs	APSR_nzcv, FPSCR
 878 0018 1DDA     		bge	.L101
  90:User_App/app_display.c ****         snprintf(buf, len, "%.3fmH", value * 1e3f);
 879              		.loc 1 90 12 is_stmt 1 view .LVU190
  90:User_App/app_display.c ****         snprintf(buf, len, "%.3fmH", value * 1e3f);
 880              		.loc 1 90 15 is_stmt 0 view .LVU191
 881 001a 9FED257A 		vldr.32	s14, .L103
 882 001e F4EEC77A 		vcmpe.f32	s15, s14
 883 0022 F1EE10FA 		vmrs	APSR_nzcv, FPSCR
 884 0026 23DA     		bge	.L102
  92:User_App/app_display.c ****         snprintf(buf, len, "%.3fuH", value * 1e6f);
 885              		.loc 1 92 12 is_stmt 1 view .LVU192
  92:User_App/app_display.c ****         snprintf(buf, len, "%.3fuH", value * 1e6f);
 886              		.loc 1 92 15 is_stmt 0 view .LVU193
 887 0028 9FED227A 		vldr.32	s14, .L103+4
 888 002c F4EEC77A 		vcmpe.f32	s15, s14
 889 0030 F1EE10FA 		vmrs	APSR_nzcv, FPSCR
 890 0034 2CDB     		blt	.L99
  93:User_App/app_display.c ****     } else {
 891              		.loc 1 93 9 is_stmt 1 view .LVU194
 892 0036 DFED207A 		vldr.32	s15, .L103+8
 893              	.LVL55:
  93:User_App/app_display.c ****     } else {
 894              		.loc 1 93 9 is_stmt 0 view .LVU195
 895 003a 60EE277A 		vmul.f32	s15, s0, s15
 896 003e 17EE900A 		vmov	r0, s15
 897              	.LVL56:
  93:User_App/app_display.c ****     } else {
 898              		.loc 1 93 9 view .LVU196
 899 0042 FFF7FEFF 		bl	__aeabi_f2d
 900              	.LVL57:
  93:User_App/app_display.c ****     } else {
 901              		.loc 1 93 9 view .LVU197
 902 0046 CDE90001 		strd	r0, [sp]
 903 004a 1C4A     		ldr	r2, .L103+12
 904 004c 2146     		mov	r1, r4
 905 004e 2846     		mov	r0, r5
 906 0050 FFF7FEFF 		bl	snprintf
 907              	.LVL58:
 908 0054 0AE0     		b	.L86
 909              	.LVL59:
 910              	.L101:
  89:User_App/app_display.c ****     } else if (absv >= 1e-3f) {
 911              		.loc 1 89 9 is_stmt 1 view .LVU198
 912 0056 10EE100A 		vmov	r0, s0
 913              	.LVL60:
  89:User_App/app_display.c ****     } else if (absv >= 1e-3f) {
 914              		.loc 1 89 9 is_stmt 0 view .LVU199
 915 005a FFF7FEFF 		bl	__aeabi_f2d
 916              	.LVL61:
ARM GAS  C:\Users\bubble\AppData\Local\Temp\cc51e8AY.s 			page 26


  89:User_App/app_display.c ****     } else if (absv >= 1e-3f) {
 917              		.loc 1 89 9 view .LVU200
 918 005e CDE90001 		strd	r0, [sp]
 919 0062 174A     		ldr	r2, .L103+16
 920 0064 2146     		mov	r1, r4
 921 0066 2846     		mov	r0, r5
 922 0068 FFF7FEFF 		bl	snprintf
 923              	.LVL62:
 924              	.L86:
  97:User_App/app_display.c **** 
 925              		.loc 1 97 1 view .LVU201
 926 006c 03B0     		add	sp, sp, #12
 927              	.LCFI10:
 928              		.cfi_remember_state
 929              		.cfi_def_cfa_offset 12
 930              		@ sp needed
 931 006e 30BD     		pop	{r4, r5, pc}
 932              	.LVL63:
 933              	.L102:
 934              	.LCFI11:
 935              		.cfi_restore_state
  91:User_App/app_display.c ****     } else if (absv >= 1e-6f) {
 936              		.loc 1 91 9 is_stmt 1 view .LVU202
 937 0070 DFED147A 		vldr.32	s15, .L103+20
 938              	.LVL64:
  91:User_App/app_display.c ****     } else if (absv >= 1e-6f) {
 939              		.loc 1 91 9 is_stmt 0 view .LVU203
 940 0074 60EE277A 		vmul.f32	s15, s0, s15
 941 0078 17EE900A 		vmov	r0, s15
 942              	.LVL65:
  91:User_App/app_display.c ****     } else if (absv >= 1e-6f) {
 943              		.loc 1 91 9 view .LVU204
 944 007c FFF7FEFF 		bl	__aeabi_f2d
 945              	.LVL66:
  91:User_App/app_display.c ****     } else if (absv >= 1e-6f) {
 946              		.loc 1 91 9 view .LVU205
 947 0080 CDE90001 		strd	r0, [sp]
 948 0084 104A     		ldr	r2, .L103+24
 949 0086 2146     		mov	r1, r4
 950 0088 2846     		mov	r0, r5
 951 008a FFF7FEFF 		bl	snprintf
 952              	.LVL67:
 953 008e EDE7     		b	.L86
 954              	.LVL68:
 955              	.L99:
  95:User_App/app_display.c ****     }
 956              		.loc 1 95 9 is_stmt 1 view .LVU206
 957 0090 DFED0E7A 		vldr.32	s15, .L103+28
 958              	.LVL69:
  95:User_App/app_display.c ****     }
 959              		.loc 1 95 9 is_stmt 0 view .LVU207
 960 0094 60EE277A 		vmul.f32	s15, s0, s15
 961 0098 17EE900A 		vmov	r0, s15
 962              	.LVL70:
  95:User_App/app_display.c ****     }
 963              		.loc 1 95 9 view .LVU208
 964 009c FFF7FEFF 		bl	__aeabi_f2d
ARM GAS  C:\Users\bubble\AppData\Local\Temp\cc51e8AY.s 			page 27


 965              	.LVL71:
  95:User_App/app_display.c ****     }
 966              		.loc 1 95 9 view .LVU209
 967 00a0 CDE90001 		strd	r0, [sp]
 968 00a4 0A4A     		ldr	r2, .L103+32
 969 00a6 2146     		mov	r1, r4
 970 00a8 2846     		mov	r0, r5
 971 00aa FFF7FEFF 		bl	snprintf
 972              	.LVL72:
  97:User_App/app_display.c **** 
 973              		.loc 1 97 1 view .LVU210
 974 00ae DDE7     		b	.L86
 975              	.L104:
 976              		.align	2
 977              	.L103:
 978 00b0 6F12833A 		.word	981668463
 979 00b4 BD378635 		.word	897988541
 980 00b8 00247449 		.word	1232348160
 981 00bc 10000000 		.word	.LC21
 982 00c0 00000000 		.word	.LC19
 983 00c4 00007A44 		.word	1148846080
 984 00c8 08000000 		.word	.LC20
 985 00cc 286B6E4E 		.word	1315859240
 986 00d0 18000000 		.word	.LC22
 987              		.cfi_endproc
 988              	.LFE249:
 990              		.section	.rodata.App_Display_BatteryBar.str1.4,"aMS",%progbits,1
 991              		.align	2
 992              	.LC23:
 993 0000 5B256325 		.ascii	"[%c%c%c%c%c]\000"
 993      63256325 
 993      6325635D 
 993      00
 994              		.section	.text.App_Display_BatteryBar,"ax",%progbits
 995              		.align	1
 996              		.syntax unified
 997              		.thumb
 998              		.thumb_func
 1000              	App_Display_BatteryBar:
 1001              	.LVL73:
 1002              	.LFB251:
 128:User_App/app_display.c ****     int pct = (int)(((vbat - 3.5f) / (4.2f - 3.5f)) * 100.0f);
 1003              		.loc 1 128 1 is_stmt 1 view -0
 1004              		.cfi_startproc
 1005              		@ args = 0, pretend = 0, frame = 0
 1006              		@ frame_needed = 0, uses_anonymous_args = 0
 128:User_App/app_display.c ****     int pct = (int)(((vbat - 3.5f) / (4.2f - 3.5f)) * 100.0f);
 1007              		.loc 1 128 1 is_stmt 0 view .LVU212
 1008 0000 70B5     		push	{r4, r5, r6, lr}
 1009              	.LCFI12:
 1010              		.cfi_def_cfa_offset 16
 1011              		.cfi_offset 4, -16
 1012              		.cfi_offset 5, -12
 1013              		.cfi_offset 6, -8
 1014              		.cfi_offset 14, -4
 1015 0002 84B0     		sub	sp, sp, #16
 1016              	.LCFI13:
ARM GAS  C:\Users\bubble\AppData\Local\Temp\cc51e8AY.s 			page 28


 1017              		.cfi_def_cfa_offset 32
 129:User_App/app_display.c ****     int bars;
 1018              		.loc 1 129 5 is_stmt 1 view .LVU213
 129:User_App/app_display.c ****     int bars;
 1019              		.loc 1 129 28 is_stmt 0 view .LVU214
 1020 0004 F0EE0C7A 		vmov.f32	s15, #3.5e+0
 1021 0008 30EE670A 		vsub.f32	s0, s0, s15
 1022              	.LVL74:
 129:User_App/app_display.c ****     int bars;
 1023              		.loc 1 129 36 view .LVU215
 1024 000c 9FED1A7A 		vldr.32	s14, .L120
 1025 0010 C0EE077A 		vdiv.f32	s15, s0, s14
 129:User_App/app_display.c ****     int bars;
 1026              		.loc 1 129 53 view .LVU216
 1027 0014 9FED197A 		vldr.32	s14, .L120+4
 1028 0018 67EE877A 		vmul.f32	s15, s15, s14
 129:User_App/app_display.c ****     int bars;
 1029              		.loc 1 129 9 view .LVU217
 1030 001c FDEEE77A 		vcvt.s32.f32	s15, s15
 1031 0020 17EE902A 		vmov	r2, s15	@ int
 1032              	.LVL75:
 130:User_App/app_display.c **** 
 1033              		.loc 1 130 5 is_stmt 1 view .LVU218
 132:User_App/app_display.c ****         pct = 0;
 1034              		.loc 1 132 5 view .LVU219
 132:User_App/app_display.c ****         pct = 0;
 1035              		.loc 1 132 8 is_stmt 0 view .LVU220
 1036 0024 002A     		cmp	r2, #0
 1037 0026 04DB     		blt	.L112
 135:User_App/app_display.c ****         pct = 100;
 1038              		.loc 1 135 5 is_stmt 1 view .LVU221
 135:User_App/app_display.c ****         pct = 100;
 1039              		.loc 1 135 8 is_stmt 0 view .LVU222
 1040 0028 642A     		cmp	r2, #100
 1041 002a 03DD     		ble	.L106
 136:User_App/app_display.c ****     }
 1042              		.loc 1 136 13 view .LVU223
 1043 002c 6422     		movs	r2, #100
 1044              	.LVL76:
 140:User_App/app_display.c ****              len,
 1045              		.loc 1 140 5 view .LVU224
 1046 002e 2323     		movs	r3, #35
 1047 0030 03E0     		b	.L107
 1048              	.LVL77:
 1049              	.L112:
 133:User_App/app_display.c ****     }
 1050              		.loc 1 133 13 view .LVU225
 1051 0032 0022     		movs	r2, #0
 1052              	.LVL78:
 1053              	.L106:
 139:User_App/app_display.c ****     snprintf(buf,
 1054              		.loc 1 139 5 is_stmt 1 view .LVU226
 140:User_App/app_display.c ****              len,
 1055              		.loc 1 140 5 view .LVU227
 1056 0034 132A     		cmp	r2, #19
 1057 0036 15DD     		ble	.L114
 1058 0038 2323     		movs	r3, #35
ARM GAS  C:\Users\bubble\AppData\Local\Temp\cc51e8AY.s 			page 29


 1059              	.LVL79:
 1060              	.L107:
 140:User_App/app_display.c ****              len,
 1061              		.loc 1 140 5 is_stmt 0 discriminator 4 view .LVU228
 1062 003a 272A     		cmp	r2, #39
 1063 003c 14DD     		ble	.L115
 140:User_App/app_display.c ****              len,
 1064              		.loc 1 140 5 view .LVU229
 1065 003e 2324     		movs	r4, #35
 1066              	.L108:
 140:User_App/app_display.c ****              len,
 1067              		.loc 1 140 5 discriminator 8 view .LVU230
 1068 0040 3B2A     		cmp	r2, #59
 1069 0042 13DD     		ble	.L116
 140:User_App/app_display.c ****              len,
 1070              		.loc 1 140 5 view .LVU231
 1071 0044 2325     		movs	r5, #35
 1072              	.L109:
 140:User_App/app_display.c ****              len,
 1073              		.loc 1 140 5 discriminator 12 view .LVU232
 1074 0046 4F2A     		cmp	r2, #79
 1075 0048 12DD     		ble	.L117
 140:User_App/app_display.c ****              len,
 1076              		.loc 1 140 5 view .LVU233
 1077 004a 2326     		movs	r6, #35
 1078              	.L110:
 140:User_App/app_display.c ****              len,
 1079              		.loc 1 140 5 discriminator 16 view .LVU234
 1080 004c 632A     		cmp	r2, #99
 1081 004e 11DD     		ble	.L118
 140:User_App/app_display.c ****              len,
 1082              		.loc 1 140 5 view .LVU235
 1083 0050 2322     		movs	r2, #35
 1084              	.L111:
 140:User_App/app_display.c ****              len,
 1085              		.loc 1 140 5 discriminator 20 view .LVU236
 1086 0052 0392     		str	r2, [sp, #12]
 1087 0054 0296     		str	r6, [sp, #8]
 1088 0056 0195     		str	r5, [sp, #4]
 1089 0058 0094     		str	r4, [sp]
 1090 005a 094A     		ldr	r2, .L120+8
 1091 005c FFF7FEFF 		bl	snprintf
 1092              	.LVL80:
 148:User_App/app_display.c **** 
 1093              		.loc 1 148 1 discriminator 20 view .LVU237
 1094 0060 04B0     		add	sp, sp, #16
 1095              	.LCFI14:
 1096              		.cfi_remember_state
 1097              		.cfi_def_cfa_offset 16
 1098              		@ sp needed
 1099 0062 70BD     		pop	{r4, r5, r6, pc}
 1100              	.LVL81:
 1101              	.L114:
 1102              	.LCFI15:
 1103              		.cfi_restore_state
 140:User_App/app_display.c ****              len,
 1104              		.loc 1 140 5 view .LVU238
ARM GAS  C:\Users\bubble\AppData\Local\Temp\cc51e8AY.s 			page 30


 1105 0064 2E23     		movs	r3, #46
 1106 0066 E8E7     		b	.L107
 1107              	.LVL82:
 1108              	.L115:
 140:User_App/app_display.c ****              len,
 1109              		.loc 1 140 5 view .LVU239
 1110 0068 2E24     		movs	r4, #46
 1111 006a E9E7     		b	.L108
 1112              	.L116:
 1113 006c 2E25     		movs	r5, #46
 1114 006e EAE7     		b	.L109
 1115              	.L117:
 1116 0070 2E26     		movs	r6, #46
 1117 0072 EBE7     		b	.L110
 1118              	.L118:
 1119 0074 2E22     		movs	r2, #46
 1120 0076 ECE7     		b	.L111
 1121              	.L121:
 1122              		.align	2
 1123              	.L120:
 1124 0078 3033333F 		.word	1060320048
 1125 007c 0000C842 		.word	1120403456
 1126 0080 00000000 		.word	.LC23
 1127              		.cfi_endproc
 1128              	.LFE251:
 1130              		.section	.rodata.App_Display_FormatRes.str1.4,"aMS",%progbits,1
 1131              		.align	2
 1132              	.LC24:
 1133 0000 252E3366 		.ascii	"%.3fMR\000"
 1133      4D5200
 1134 0007 00       		.align	2
 1135              	.LC25:
 1136 0008 252E3366 		.ascii	"%.3fkR\000"
 1136      6B5200
 1137 000f 00       		.align	2
 1138              	.LC26:
 1139 0010 252E3366 		.ascii	"%.3fR\000"
 1139      5200
 1140 0016 0000     		.align	2
 1141              	.LC27:
 1142 0018 252E3266 		.ascii	"%.2fmR\000"
 1142      6D5200
 1143              		.section	.text.App_Display_FormatRes,"ax",%progbits
 1144              		.align	1
 1145              		.syntax unified
 1146              		.thumb
 1147              		.thumb_func
 1149              	App_Display_FormatRes:
 1150              	.LVL83:
 1151              	.LFB247:
  55:User_App/app_display.c ****     float absv = fabsf(value);
 1152              		.loc 1 55 1 is_stmt 1 view -0
 1153              		.cfi_startproc
 1154              		@ args = 0, pretend = 0, frame = 0
 1155              		@ frame_needed = 0, uses_anonymous_args = 0
  55:User_App/app_display.c ****     float absv = fabsf(value);
 1156              		.loc 1 55 1 is_stmt 0 view .LVU241
ARM GAS  C:\Users\bubble\AppData\Local\Temp\cc51e8AY.s 			page 31


 1157 0000 30B5     		push	{r4, r5, lr}
 1158              	.LCFI16:
 1159              		.cfi_def_cfa_offset 12
 1160              		.cfi_offset 4, -12
 1161              		.cfi_offset 5, -8
 1162              		.cfi_offset 14, -4
 1163 0002 83B0     		sub	sp, sp, #12
 1164              	.LCFI17:
 1165              		.cfi_def_cfa_offset 24
 1166 0004 0546     		mov	r5, r0
 1167 0006 0C46     		mov	r4, r1
  56:User_App/app_display.c **** 
 1168              		.loc 1 56 5 is_stmt 1 view .LVU242
  56:User_App/app_display.c **** 
 1169              		.loc 1 56 11 is_stmt 0 view .LVU243
 1170 0008 F0EEC07A 		vabs.f32	s15, s0
 1171              	.LVL84:
  58:User_App/app_display.c ****         snprintf(buf, len, "%.3fMR", value / 1e6f);
 1172              		.loc 1 58 5 is_stmt 1 view .LVU244
  58:User_App/app_display.c ****         snprintf(buf, len, "%.3fMR", value / 1e6f);
 1173              		.loc 1 58 8 is_stmt 0 view .LVU245
 1174 000c 9FED267A 		vldr.32	s14, .L139
 1175 0010 F4EEC77A 		vcmpe.f32	s15, s14
 1176 0014 F1EE10FA 		vmrs	APSR_nzcv, FPSCR
 1177 0018 19DA     		bge	.L137
  60:User_App/app_display.c ****         snprintf(buf, len, "%.3fkR", value / 1e3f);
 1178              		.loc 1 60 12 is_stmt 1 view .LVU246
  60:User_App/app_display.c ****         snprintf(buf, len, "%.3fkR", value / 1e3f);
 1179              		.loc 1 60 15 is_stmt 0 view .LVU247
 1180 001a 9FED247A 		vldr.32	s14, .L139+4
 1181 001e F4EEC77A 		vcmpe.f32	s15, s14
 1182 0022 F1EE10FA 		vmrs	APSR_nzcv, FPSCR
 1183 0026 21DA     		bge	.L138
  62:User_App/app_display.c ****         snprintf(buf, len, "%.3fR", value);
 1184              		.loc 1 62 12 is_stmt 1 view .LVU248
  62:User_App/app_display.c ****         snprintf(buf, len, "%.3fR", value);
 1185              		.loc 1 62 15 is_stmt 0 view .LVU249
 1186 0028 B7EE007A 		vmov.f32	s14, #1.0e+0
 1187 002c F4EEC77A 		vcmpe.f32	s15, s14
 1188 0030 F1EE10FA 		vmrs	APSR_nzcv, FPSCR
 1189 0034 28DB     		blt	.L135
  63:User_App/app_display.c ****     } else {
 1190              		.loc 1 63 9 is_stmt 1 view .LVU250
 1191 0036 10EE100A 		vmov	r0, s0
 1192              	.LVL85:
  63:User_App/app_display.c ****     } else {
 1193              		.loc 1 63 9 is_stmt 0 view .LVU251
 1194 003a FFF7FEFF 		bl	__aeabi_f2d
 1195              	.LVL86:
  63:User_App/app_display.c ****     } else {
 1196              		.loc 1 63 9 view .LVU252
 1197 003e CDE90001 		strd	r0, [sp]
 1198 0042 1B4A     		ldr	r2, .L139+8
 1199 0044 2146     		mov	r1, r4
 1200 0046 2846     		mov	r0, r5
 1201 0048 FFF7FEFF 		bl	snprintf
 1202              	.LVL87:
ARM GAS  C:\Users\bubble\AppData\Local\Temp\cc51e8AY.s 			page 32


 1203 004c 0CE0     		b	.L122
 1204              	.LVL88:
 1205              	.L137:
  59:User_App/app_display.c ****     } else if (absv >= 1e3f) {
 1206              		.loc 1 59 9 is_stmt 1 view .LVU253
 1207 004e C0EE077A 		vdiv.f32	s15, s0, s14
 1208              	.LVL89:
  59:User_App/app_display.c ****     } else if (absv >= 1e3f) {
 1209              		.loc 1 59 9 is_stmt 0 view .LVU254
 1210 0052 17EE900A 		vmov	r0, s15
 1211              	.LVL90:
  59:User_App/app_display.c ****     } else if (absv >= 1e3f) {
 1212              		.loc 1 59 9 view .LVU255
 1213 0056 FFF7FEFF 		bl	__aeabi_f2d
 1214              	.LVL91:
  59:User_App/app_display.c ****     } else if (absv >= 1e3f) {
 1215              		.loc 1 59 9 view .LVU256
 1216 005a CDE90001 		strd	r0, [sp]
 1217 005e 154A     		ldr	r2, .L139+12
 1218 0060 2146     		mov	r1, r4
 1219 0062 2846     		mov	r0, r5
 1220 0064 FFF7FEFF 		bl	snprintf
 1221              	.LVL92:
 1222              	.L122:
  67:User_App/app_display.c **** 
 1223              		.loc 1 67 1 view .LVU257
 1224 0068 03B0     		add	sp, sp, #12
 1225              	.LCFI18:
 1226              		.cfi_remember_state
 1227              		.cfi_def_cfa_offset 12
 1228              		@ sp needed
 1229 006a 30BD     		pop	{r4, r5, pc}
 1230              	.LVL93:
 1231              	.L138:
 1232              	.LCFI19:
 1233              		.cfi_restore_state
  61:User_App/app_display.c ****     } else if (absv >= 1.0f) {
 1234              		.loc 1 61 9 is_stmt 1 view .LVU258
 1235 006c C0EE077A 		vdiv.f32	s15, s0, s14
 1236              	.LVL94:
  61:User_App/app_display.c ****     } else if (absv >= 1.0f) {
 1237              		.loc 1 61 9 is_stmt 0 view .LVU259
 1238 0070 17EE900A 		vmov	r0, s15
 1239              	.LVL95:
  61:User_App/app_display.c ****     } else if (absv >= 1.0f) {
 1240              		.loc 1 61 9 view .LVU260
 1241 0074 FFF7FEFF 		bl	__aeabi_f2d
 1242              	.LVL96:
  61:User_App/app_display.c ****     } else if (absv >= 1.0f) {
 1243              		.loc 1 61 9 view .LVU261
 1244 0078 CDE90001 		strd	r0, [sp]
 1245 007c 0E4A     		ldr	r2, .L139+16
 1246 007e 2146     		mov	r1, r4
 1247 0080 2846     		mov	r0, r5
 1248 0082 FFF7FEFF 		bl	snprintf
 1249              	.LVL97:
 1250 0086 EFE7     		b	.L122
ARM GAS  C:\Users\bubble\AppData\Local\Temp\cc51e8AY.s 			page 33


 1251              	.LVL98:
 1252              	.L135:
  65:User_App/app_display.c ****     }
 1253              		.loc 1 65 9 is_stmt 1 view .LVU262
 1254 0088 DFED087A 		vldr.32	s15, .L139+4
 1255              	.LVL99:
  65:User_App/app_display.c ****     }
 1256              		.loc 1 65 9 is_stmt 0 view .LVU263
 1257 008c 60EE277A 		vmul.f32	s15, s0, s15
 1258 0090 17EE900A 		vmov	r0, s15
 1259              	.LVL100:
  65:User_App/app_display.c ****     }
 1260              		.loc 1 65 9 view .LVU264
 1261 0094 FFF7FEFF 		bl	__aeabi_f2d
 1262              	.LVL101:
  65:User_App/app_display.c ****     }
 1263              		.loc 1 65 9 view .LVU265
 1264 0098 CDE90001 		strd	r0, [sp]
 1265 009c 074A     		ldr	r2, .L139+20
 1266 009e 2146     		mov	r1, r4
 1267 00a0 2846     		mov	r0, r5
 1268 00a2 FFF7FEFF 		bl	snprintf
 1269              	.LVL102:
  67:User_App/app_display.c **** 
 1270              		.loc 1 67 1 view .LVU266
 1271 00a6 DFE7     		b	.L122
 1272              	.L140:
 1273              		.align	2
 1274              	.L139:
 1275 00a8 00247449 		.word	1232348160
 1276 00ac 00007A44 		.word	1148846080
 1277 00b0 10000000 		.word	.LC26
 1278 00b4 00000000 		.word	.LC24
 1279 00b8 08000000 		.word	.LC25
 1280 00bc 18000000 		.word	.LC27
 1281              		.cfi_endproc
 1282              	.LFE247:
 1284              		.section	.rodata.App_Display_FormatPrimary.str1.4,"aMS",%progbits,1
 1285              		.align	2
 1286              	.LC28:
 1287 0000 2D2D204D 		.ascii	"-- Measuring --\000"
 1287      65617375 
 1287      72696E67 
 1287      202D2D00 
 1288              		.align	2
 1289              	.LC29:
 1290 0010 52202573 		.ascii	"R %s\000"
 1290      00
 1291 0015 000000   		.align	2
 1292              	.LC30:
 1293 0018 43202573 		.ascii	"C %s\000"
 1293      00
 1294 001d 000000   		.align	2
 1295              	.LC31:
 1296 0020 4C202573 		.ascii	"L %s\000"
 1296      00
 1297 0025 000000   		.align	2
ARM GAS  C:\Users\bubble\AppData\Local\Temp\cc51e8AY.s 			page 34


 1298              	.LC32:
 1299 0028 556E6B6E 		.ascii	"Unknown\000"
 1299      6F776E00 
 1300              		.section	.text.App_Display_FormatPrimary,"ax",%progbits
 1301              		.align	1
 1302              		.syntax unified
 1303              		.thumb
 1304              		.thumb_func
 1306              	App_Display_FormatPrimary:
 1307              	.LVL103:
 1308              	.LFB250:
 100:User_App/app_display.c ****     char val[20];
 1309              		.loc 1 100 1 is_stmt 1 view -0
 1310              		.cfi_startproc
 1311              		@ args = 0, pretend = 0, frame = 24
 1312              		@ frame_needed = 0, uses_anonymous_args = 0
 100:User_App/app_display.c ****     char val[20];
 1313              		.loc 1 100 1 is_stmt 0 view .LVU268
 1314 0000 30B5     		push	{r4, r5, lr}
 1315              	.LCFI20:
 1316              		.cfi_def_cfa_offset 12
 1317              		.cfi_offset 4, -12
 1318              		.cfi_offset 5, -8
 1319              		.cfi_offset 14, -4
 1320 0002 87B0     		sub	sp, sp, #28
 1321              	.LCFI21:
 1322              		.cfi_def_cfa_offset 40
 1323 0004 0C46     		mov	r4, r1
 1324 0006 1546     		mov	r5, r2
 101:User_App/app_display.c **** 
 1325              		.loc 1 101 5 is_stmt 1 view .LVU269
 103:User_App/app_display.c ****         snprintf(buf, len, "-- Measuring --");
 1326              		.loc 1 103 5 view .LVU270
 103:User_App/app_display.c ****         snprintf(buf, len, "-- Measuring --");
 1327              		.loc 1 103 8 is_stmt 0 view .LVU271
 1328 0008 80B1     		cbz	r0, .L142
 1329 000a 0346     		mov	r3, r0
 103:User_App/app_display.c ****         snprintf(buf, len, "-- Measuring --");
 1330              		.loc 1 103 36 discriminator 1 view .LVU272
 1331 000c 90F82320 		ldrb	r2, [r0, #35]	@ zero_extendqisi2
 1332              	.LVL104:
 103:User_App/app_display.c ****         snprintf(buf, len, "-- Measuring --");
 1333              		.loc 1 103 26 discriminator 1 view .LVU273
 1334 0010 62B1     		cbz	r2, .L142
 108:User_App/app_display.c ****     case COMP_RESISTOR:
 1335              		.loc 1 108 5 is_stmt 1 view .LVU274
 108:User_App/app_display.c ****     case COMP_RESISTOR:
 1336              		.loc 1 108 19 is_stmt 0 view .LVU275
 1337 0012 90F82020 		ldrb	r2, [r0, #32]	@ zero_extendqisi2
 108:User_App/app_display.c ****     case COMP_RESISTOR:
 1338              		.loc 1 108 5 view .LVU276
 1339 0016 012A     		cmp	r2, #1
 1340 0018 1CD0     		beq	.L145
 1341 001a 022A     		cmp	r2, #2
 1342 001c 27D0     		beq	.L146
 1343 001e 62B1     		cbz	r2, .L150
 122:User_App/app_display.c ****         break;
ARM GAS  C:\Users\bubble\AppData\Local\Temp\cc51e8AY.s 			page 35


 1344              		.loc 1 122 9 is_stmt 1 view .LVU277
 1345 0020 194A     		ldr	r2, .L151
 1346 0022 2946     		mov	r1, r5
 1347              	.LVL105:
 122:User_App/app_display.c ****         break;
 1348              		.loc 1 122 9 is_stmt 0 view .LVU278
 1349 0024 2046     		mov	r0, r4
 1350              	.LVL106:
 122:User_App/app_display.c ****         break;
 1351              		.loc 1 122 9 view .LVU279
 1352 0026 FFF7FEFF 		bl	snprintf
 1353              	.LVL107:
 123:User_App/app_display.c ****     }
 1354              		.loc 1 123 9 is_stmt 1 view .LVU280
 1355 002a 04E0     		b	.L141
 1356              	.LVL108:
 1357              	.L142:
 104:User_App/app_display.c ****         return;
 1358              		.loc 1 104 9 view .LVU281
 1359 002c 174A     		ldr	r2, .L151+4
 1360 002e 2946     		mov	r1, r5
 1361              	.LVL109:
 104:User_App/app_display.c ****         return;
 1362              		.loc 1 104 9 is_stmt 0 view .LVU282
 1363 0030 2046     		mov	r0, r4
 1364              	.LVL110:
 104:User_App/app_display.c ****         return;
 1365              		.loc 1 104 9 view .LVU283
 1366 0032 FFF7FEFF 		bl	snprintf
 1367              	.LVL111:
 105:User_App/app_display.c ****     }
 1368              		.loc 1 105 9 is_stmt 1 view .LVU284
 1369              	.L141:
 125:User_App/app_display.c **** 
 1370              		.loc 1 125 1 is_stmt 0 view .LVU285
 1371 0036 07B0     		add	sp, sp, #28
 1372              	.LCFI22:
 1373              		.cfi_remember_state
 1374              		.cfi_def_cfa_offset 12
 1375              		@ sp needed
 1376 0038 30BD     		pop	{r4, r5, pc}
 1377              	.LVL112:
 1378              	.L150:
 1379              	.LCFI23:
 1380              		.cfi_restore_state
 110:User_App/app_display.c ****         snprintf(buf, len, "R %s", val);
 1381              		.loc 1 110 9 is_stmt 1 view .LVU286
 1382 003a 1421     		movs	r1, #20
 1383              	.LVL113:
 110:User_App/app_display.c ****         snprintf(buf, len, "R %s", val);
 1384              		.loc 1 110 9 is_stmt 0 view .LVU287
 1385 003c 01A8     		add	r0, sp, #4
 1386              	.LVL114:
 110:User_App/app_display.c ****         snprintf(buf, len, "R %s", val);
 1387              		.loc 1 110 9 view .LVU288
 1388 003e 93ED040A 		vldr.32	s0, [r3, #16]
 1389 0042 FFF7FEFF 		bl	App_Display_FormatRes
ARM GAS  C:\Users\bubble\AppData\Local\Temp\cc51e8AY.s 			page 36


 1390              	.LVL115:
 111:User_App/app_display.c ****         break;
 1391              		.loc 1 111 9 is_stmt 1 view .LVU289
 1392 0046 01AB     		add	r3, sp, #4
 1393 0048 114A     		ldr	r2, .L151+8
 1394 004a 2946     		mov	r1, r5
 1395 004c 2046     		mov	r0, r4
 1396 004e FFF7FEFF 		bl	snprintf
 1397              	.LVL116:
 112:User_App/app_display.c ****     case COMP_CAPACITOR:
 1398              		.loc 1 112 9 view .LVU290
 1399 0052 F0E7     		b	.L141
 1400              	.LVL117:
 1401              	.L145:
 114:User_App/app_display.c ****         snprintf(buf, len, "C %s", val);
 1402              		.loc 1 114 9 view .LVU291
 1403 0054 1421     		movs	r1, #20
 1404              	.LVL118:
 114:User_App/app_display.c ****         snprintf(buf, len, "C %s", val);
 1405              		.loc 1 114 9 is_stmt 0 view .LVU292
 1406 0056 01A8     		add	r0, sp, #4
 1407              	.LVL119:
 114:User_App/app_display.c ****         snprintf(buf, len, "C %s", val);
 1408              		.loc 1 114 9 view .LVU293
 1409 0058 93ED040A 		vldr.32	s0, [r3, #16]
 1410 005c FFF7FEFF 		bl	App_Display_FormatCap
 1411              	.LVL120:
 115:User_App/app_display.c ****         break;
 1412              		.loc 1 115 9 is_stmt 1 view .LVU294
 1413 0060 01AB     		add	r3, sp, #4
 1414 0062 0C4A     		ldr	r2, .L151+12
 1415 0064 2946     		mov	r1, r5
 1416 0066 2046     		mov	r0, r4
 1417 0068 FFF7FEFF 		bl	snprintf
 1418              	.LVL121:
 116:User_App/app_display.c ****     case COMP_INDUCTOR:
 1419              		.loc 1 116 9 view .LVU295
 1420 006c E3E7     		b	.L141
 1421              	.LVL122:
 1422              	.L146:
 118:User_App/app_display.c ****         snprintf(buf, len, "L %s", val);
 1423              		.loc 1 118 9 view .LVU296
 1424 006e 1421     		movs	r1, #20
 1425              	.LVL123:
 118:User_App/app_display.c ****         snprintf(buf, len, "L %s", val);
 1426              		.loc 1 118 9 is_stmt 0 view .LVU297
 1427 0070 01A8     		add	r0, sp, #4
 1428              	.LVL124:
 118:User_App/app_display.c ****         snprintf(buf, len, "L %s", val);
 1429              		.loc 1 118 9 view .LVU298
 1430 0072 93ED040A 		vldr.32	s0, [r3, #16]
 1431 0076 FFF7FEFF 		bl	App_Display_FormatInd
 1432              	.LVL125:
 119:User_App/app_display.c ****         break;
 1433              		.loc 1 119 9 is_stmt 1 view .LVU299
 1434 007a 01AB     		add	r3, sp, #4
 1435 007c 064A     		ldr	r2, .L151+16
ARM GAS  C:\Users\bubble\AppData\Local\Temp\cc51e8AY.s 			page 37


 1436 007e 2946     		mov	r1, r5
 1437 0080 2046     		mov	r0, r4
 1438 0082 FFF7FEFF 		bl	snprintf
 1439              	.LVL126:
 120:User_App/app_display.c ****     default:
 1440              		.loc 1 120 9 view .LVU300
 1441 0086 D6E7     		b	.L141
 1442              	.L152:
 1443              		.align	2
 1444              	.L151:
 1445 0088 28000000 		.word	.LC32
 1446 008c 00000000 		.word	.LC28
 1447 0090 10000000 		.word	.LC29
 1448 0094 18000000 		.word	.LC30
 1449 0098 20000000 		.word	.LC31
 1450              		.cfi_endproc
 1451              	.LFE250:
 1453              		.section	.rodata.App_Display_DrawMeasure.str1.4,"aMS",%progbits,1
 1454              		.align	2
 1455              	.LC33:
 1456 0000 513D252E 		.ascii	"Q=%.2f D=%.3f\000"
 1456      32662044 
 1456      3D252E33 
 1456      6600
 1457 000e 0000     		.align	2
 1458              	.LC34:
 1459 0010 513D2D2D 		.ascii	"Q=--- D=---\000"
 1459      2D20443D 
 1459      2D2D2D00 
 1460              		.align	2
 1461              	.LC35:
 1462 001c 7C5A7C3D 		.ascii	"|Z|=%s\000"
 1462      257300
 1463 0023 00       		.align	2
 1464              	.LC36:
 1465 0024 50683D25 		.ascii	"Ph=%.1f\000"
 1465      2E316600 
 1466              		.align	2
 1467              	.LC37:
 1468 002c 523A2573 		.ascii	"R:%s G:%u\000"
 1468      20473A25 
 1468      7500
 1469 0036 0000     		.align	2
 1470              	.LC38:
 1471 0038 7C5A7C3D 		.ascii	"|Z|=---\000"
 1471      2D2D2D00 
 1472              		.align	2
 1473              	.LC39:
 1474 0040 50683D2D 		.ascii	"Ph=---\000"
 1474      2D2D00
 1475 0047 00       		.align	2
 1476              	.LC40:
 1477 0048 523A2D2D 		.ascii	"R:-- G:--\000"
 1477      20473A2D 
 1477      2D00
 1478 0052 0000     		.align	2
 1479              	.LC41:
ARM GAS  C:\Users\bubble\AppData\Local\Temp\cc51e8AY.s 			page 38


 1480 0054 25732025 		.ascii	"%s %s\000"
 1480      7300
 1481 005a 0000     		.align	2
 1482              	.LC42:
 1483 005c 4261743D 		.ascii	"Bat=%.2fV\000"
 1483      252E3266 
 1483      5600
 1484 0066 0000     		.align	2
 1485              	.LC43:
 1486 0068 4B314D65 		.ascii	"K1Menu K4Freq K2Mode\000"
 1486      6E75204B 
 1486      34467265 
 1486      71204B32 
 1486      4D6F6465 
 1487 007d 000000   		.align	2
 1488              	.LC44:
 1489 0080 52653D25 		.ascii	"Re=%s\000"
 1489      7300
 1490 0086 0000     		.align	2
 1491              	.LC45:
 1492 0088 496D3D25 		.ascii	"Im=%s\000"
 1492      7300
 1493 008e 0000     		.align	2
 1494              	.LC46:
 1495 0090 52653D2D 		.ascii	"Re=--- Im=---\000"
 1495      2D2D2049 
 1495      6D3D2D2D 
 1495      2D00
 1496              		.section	.text.App_Display_DrawMeasure,"ax",%progbits
 1497              		.align	1
 1498              		.syntax unified
 1499              		.thumb
 1500              		.thumb_func
 1502              	App_Display_DrawMeasure:
 1503              	.LVL127:
 1504              	.LFB252:
 151:User_App/app_display.c ****     char line[32];
 1505              		.loc 1 151 1 view -0
 1506              		.cfi_startproc
 1507              		@ args = 0, pretend = 0, frame = 64
 1508              		@ frame_needed = 0, uses_anonymous_args = 0
 151:User_App/app_display.c ****     char line[32];
 1509              		.loc 1 151 1 is_stmt 0 view .LVU302
 1510 0000 70B5     		push	{r4, r5, r6, lr}
 1511              	.LCFI24:
 1512              		.cfi_def_cfa_offset 16
 1513              		.cfi_offset 4, -16
 1514              		.cfi_offset 5, -12
 1515              		.cfi_offset 6, -8
 1516              		.cfi_offset 14, -4
 1517 0002 94B0     		sub	sp, sp, #80
 1518              	.LCFI25:
 1519              		.cfi_def_cfa_offset 96
 1520 0004 0446     		mov	r4, r0
 152:User_App/app_display.c ****     char zbuf[16];
 1521              		.loc 1 152 5 is_stmt 1 view .LVU303
 153:User_App/app_display.c ****     char bat[12];
ARM GAS  C:\Users\bubble\AppData\Local\Temp\cc51e8AY.s 			page 39


 1522              		.loc 1 153 5 view .LVU304
 154:User_App/app_display.c **** 
 1523              		.loc 1 154 5 view .LVU305
 156:User_App/app_display.c ****     OLED_ShowString(0, 0, line, OLED_8X16);
 1524              		.loc 1 156 5 view .LVU306
 1525 0006 2022     		movs	r2, #32
 1526 0008 0CA9     		add	r1, sp, #48
 1527 000a FFF7FEFF 		bl	App_Display_FormatPrimary
 1528              	.LVL128:
 157:User_App/app_display.c **** 
 1529              		.loc 1 157 5 view .LVU307
 1530 000e 0823     		movs	r3, #8
 1531 0010 0CAA     		add	r2, sp, #48
 1532 0012 0021     		movs	r1, #0
 1533 0014 0846     		mov	r0, r1
 1534 0016 FFF7FEFF 		bl	OLED_ShowString
 1535              	.LVL129:
 159:User_App/app_display.c ****         snprintf(line, sizeof(line), "Q=%.2f D=%.3f", result->q_factor, result->d_factor);
 1536              		.loc 1 159 5 view .LVU308
 159:User_App/app_display.c ****         snprintf(line, sizeof(line), "Q=%.2f D=%.3f", result->q_factor, result->d_factor);
 1537              		.loc 1 159 8 is_stmt 0 view .LVU309
 1538 001a 1CB1     		cbz	r4, .L154
 159:User_App/app_display.c ****         snprintf(line, sizeof(line), "Q=%.2f D=%.3f", result->q_factor, result->d_factor);
 1539              		.loc 1 159 36 discriminator 1 view .LVU310
 1540 001c 94F82330 		ldrb	r3, [r4, #35]	@ zero_extendqisi2
 159:User_App/app_display.c ****         snprintf(line, sizeof(line), "Q=%.2f D=%.3f", result->q_factor, result->d_factor);
 1541              		.loc 1 159 26 discriminator 1 view .LVU311
 1542 0020 002B     		cmp	r3, #0
 1543 0022 5BD1     		bne	.L162
 1544              	.L154:
 162:User_App/app_display.c ****     }
 1545              		.loc 1 162 9 is_stmt 1 view .LVU312
 1546 0024 0CAB     		add	r3, sp, #48
 1547 0026 674A     		ldr	r2, .L166
 1548 0028 07CA     		ldm	r2, {r0, r1, r2}
 1549 002a 83E80700 		stm	r3, {r0, r1, r2}
 1550              	.L155:
 164:User_App/app_display.c **** 
 1551              		.loc 1 164 5 view .LVU313
 1552 002e 0623     		movs	r3, #6
 1553 0030 0CAA     		add	r2, sp, #48
 1554 0032 1021     		movs	r1, #16
 1555 0034 0020     		movs	r0, #0
 1556 0036 FFF7FEFF 		bl	OLED_ShowString
 1557              	.LVL130:
 166:User_App/app_display.c ****         App_Display_FormatRes(result->z_mag_ohm, zbuf, sizeof(zbuf));
 1558              		.loc 1 166 5 view .LVU314
 166:User_App/app_display.c ****         App_Display_FormatRes(result->z_mag_ohm, zbuf, sizeof(zbuf));
 1559              		.loc 1 166 8 is_stmt 0 view .LVU315
 1560 003a 1CB1     		cbz	r4, .L156
 166:User_App/app_display.c ****         App_Display_FormatRes(result->z_mag_ohm, zbuf, sizeof(zbuf));
 1561              		.loc 1 166 36 discriminator 1 view .LVU316
 1562 003c 94F82330 		ldrb	r3, [r4, #35]	@ zero_extendqisi2
 166:User_App/app_display.c ****         App_Display_FormatRes(result->z_mag_ohm, zbuf, sizeof(zbuf));
 1563              		.loc 1 166 26 discriminator 1 view .LVU317
 1564 0040 002B     		cmp	r3, #0
 1565 0042 5CD1     		bne	.L163
ARM GAS  C:\Users\bubble\AppData\Local\Temp\cc51e8AY.s 			page 40


 1566              	.L156:
 181:User_App/app_display.c ****         OLED_ShowString(72, 24, "Ph=---", OLED_6X8);
 1567              		.loc 1 181 9 is_stmt 1 view .LVU318
 1568 0044 0623     		movs	r3, #6
 1569 0046 604A     		ldr	r2, .L166+4
 1570 0048 1821     		movs	r1, #24
 1571 004a 0020     		movs	r0, #0
 1572 004c FFF7FEFF 		bl	OLED_ShowString
 1573              	.LVL131:
 182:User_App/app_display.c ****         OLED_ShowString(0, 32, "R:-- G:--", OLED_6X8);
 1574              		.loc 1 182 9 view .LVU319
 1575 0050 0623     		movs	r3, #6
 1576 0052 5E4A     		ldr	r2, .L166+8
 1577 0054 1821     		movs	r1, #24
 1578 0056 4820     		movs	r0, #72
 1579 0058 FFF7FEFF 		bl	OLED_ShowString
 1580              	.LVL132:
 183:User_App/app_display.c ****     }
 1581              		.loc 1 183 9 view .LVU320
 1582 005c 0623     		movs	r3, #6
 1583 005e 5C4A     		ldr	r2, .L166+12
 1584 0060 2021     		movs	r1, #32
 1585 0062 0020     		movs	r0, #0
 1586 0064 FFF7FEFF 		bl	OLED_ShowString
 1587              	.LVL133:
 1588              	.L157:
 186:User_App/app_display.c ****     snprintf(line, sizeof(line), "%s %s", kFreqStr[s_freq_index], bat);
 1589              		.loc 1 186 5 view .LVU321
 1590 0068 05AE     		add	r6, sp, #20
 1591 006a 5A4D     		ldr	r5, .L166+16
 1592 006c 0C21     		movs	r1, #12
 1593 006e 3046     		mov	r0, r6
 1594 0070 95ED000A 		vldr.32	s0, [r5]
 1595 0074 FFF7FEFF 		bl	App_Display_BatteryBar
 1596              	.LVL134:
 187:User_App/app_display.c ****     OLED_ShowString(0, 40, line, OLED_6X8);
 1597              		.loc 1 187 5 view .LVU322
 1598 0078 574B     		ldr	r3, .L166+20
 1599 007a 1A78     		ldrb	r2, [r3]	@ zero_extendqisi2
 1600 007c 0096     		str	r6, [sp]
 1601 007e 574B     		ldr	r3, .L166+24
 1602 0080 53F82230 		ldr	r3, [r3, r2, lsl #2]
 1603 0084 564A     		ldr	r2, .L166+28
 1604 0086 2021     		movs	r1, #32
 1605 0088 0CA8     		add	r0, sp, #48
 1606 008a FFF7FEFF 		bl	snprintf
 1607              	.LVL135:
 188:User_App/app_display.c **** 
 1608              		.loc 1 188 5 view .LVU323
 1609 008e 0623     		movs	r3, #6
 1610 0090 0CAA     		add	r2, sp, #48
 1611 0092 2821     		movs	r1, #40
 1612 0094 0020     		movs	r0, #0
 1613 0096 FFF7FEFF 		bl	OLED_ShowString
 1614              	.LVL136:
 190:User_App/app_display.c ****     OLED_ShowString(0, 48, line, OLED_6X8);
 1615              		.loc 1 190 5 view .LVU324
ARM GAS  C:\Users\bubble\AppData\Local\Temp\cc51e8AY.s 			page 41


 1616 009a 2868     		ldr	r0, [r5]	@ float
 1617 009c FFF7FEFF 		bl	__aeabi_f2d
 1618              	.LVL137:
 1619 00a0 CDE90001 		strd	r0, [sp]
 1620 00a4 4F4A     		ldr	r2, .L166+32
 1621 00a6 2021     		movs	r1, #32
 1622 00a8 0CA8     		add	r0, sp, #48
 1623 00aa FFF7FEFF 		bl	snprintf
 1624              	.LVL138:
 191:User_App/app_display.c **** 
 1625              		.loc 1 191 5 view .LVU325
 1626 00ae 0623     		movs	r3, #6
 1627 00b0 0CAA     		add	r2, sp, #48
 1628 00b2 3021     		movs	r1, #48
 1629 00b4 0020     		movs	r0, #0
 1630 00b6 FFF7FEFF 		bl	OLED_ShowString
 1631              	.LVL139:
 193:User_App/app_display.c ****         OLED_ShowString(0, 56, "K1Menu K4Freq K2Mode", OLED_6X8);
 1632              		.loc 1 193 5 view .LVU326
 193:User_App/app_display.c ****         OLED_ShowString(0, 56, "K1Menu K4Freq K2Mode", OLED_6X8);
 1633              		.loc 1 193 21 is_stmt 0 view .LVU327
 1634 00ba 4B4B     		ldr	r3, .L166+36
 1635 00bc 1B78     		ldrb	r3, [r3]	@ zero_extendqisi2
 193:User_App/app_display.c ****         OLED_ShowString(0, 56, "K1Menu K4Freq K2Mode", OLED_6X8);
 1636              		.loc 1 193 8 view .LVU328
 1637 00be 002B     		cmp	r3, #0
 1638 00c0 53D0     		beq	.L164
 196:User_App/app_display.c ****             App_Display_FormatRes(result->re_ohm, zbuf, sizeof(zbuf));
 1639              		.loc 1 196 9 is_stmt 1 view .LVU329
 196:User_App/app_display.c ****             App_Display_FormatRes(result->re_ohm, zbuf, sizeof(zbuf));
 1640              		.loc 1 196 12 is_stmt 0 view .LVU330
 1641 00c2 1CB1     		cbz	r4, .L160
 196:User_App/app_display.c ****             App_Display_FormatRes(result->re_ohm, zbuf, sizeof(zbuf));
 1642              		.loc 1 196 40 discriminator 1 view .LVU331
 1643 00c4 94F82330 		ldrb	r3, [r4, #35]	@ zero_extendqisi2
 196:User_App/app_display.c ****             App_Display_FormatRes(result->re_ohm, zbuf, sizeof(zbuf));
 1644              		.loc 1 196 30 discriminator 1 view .LVU332
 1645 00c8 002B     		cmp	r3, #0
 1646 00ca 55D1     		bne	.L165
 1647              	.L160:
 205:User_App/app_display.c ****         }
 1648              		.loc 1 205 13 is_stmt 1 view .LVU333
 1649 00cc 0623     		movs	r3, #6
 1650 00ce 474A     		ldr	r2, .L166+40
 1651 00d0 3821     		movs	r1, #56
 1652 00d2 0020     		movs	r0, #0
 1653 00d4 FFF7FEFF 		bl	OLED_ShowString
 1654              	.LVL140:
 1655              	.L153:
 208:User_App/app_display.c **** 
 1656              		.loc 1 208 1 is_stmt 0 view .LVU334
 1657 00d8 14B0     		add	sp, sp, #80
 1658              	.LCFI26:
 1659              		.cfi_remember_state
 1660              		.cfi_def_cfa_offset 16
 1661              		@ sp needed
 1662 00da 70BD     		pop	{r4, r5, r6, pc}
ARM GAS  C:\Users\bubble\AppData\Local\Temp\cc51e8AY.s 			page 42


 1663              	.LVL141:
 1664              	.L162:
 1665              	.LCFI27:
 1666              		.cfi_restore_state
 160:User_App/app_display.c ****     } else {
 1667              		.loc 1 160 9 is_stmt 1 view .LVU335
 160:User_App/app_display.c ****     } else {
 1668              		.loc 1 160 61 is_stmt 0 view .LVU336
 1669 00dc 6569     		ldr	r5, [r4, #20]	@ float
 160:User_App/app_display.c ****     } else {
 1670              		.loc 1 160 9 view .LVU337
 1671 00de A069     		ldr	r0, [r4, #24]	@ float
 1672 00e0 FFF7FEFF 		bl	__aeabi_f2d
 1673              	.LVL142:
 1674 00e4 CDE90201 		strd	r0, [sp, #8]
 1675 00e8 2846     		mov	r0, r5	@ float
 1676 00ea FFF7FEFF 		bl	__aeabi_f2d
 1677              	.LVL143:
 1678 00ee CDE90001 		strd	r0, [sp]
 1679 00f2 3F4A     		ldr	r2, .L166+44
 1680 00f4 2021     		movs	r1, #32
 1681 00f6 0CA8     		add	r0, sp, #48
 1682 00f8 FFF7FEFF 		bl	snprintf
 1683              	.LVL144:
 1684 00fc 97E7     		b	.L155
 1685              	.L163:
 167:User_App/app_display.c ****         snprintf(line, sizeof(line), "|Z|=%s", zbuf);
 1686              		.loc 1 167 9 is_stmt 1 view .LVU338
 1687 00fe 1021     		movs	r1, #16
 1688 0100 08A8     		add	r0, sp, #32
 1689 0102 94ED020A 		vldr.32	s0, [r4, #8]
 1690 0106 FFF7FEFF 		bl	App_Display_FormatRes
 1691              	.LVL145:
 168:User_App/app_display.c ****         OLED_ShowString(0, 24, line, OLED_6X8);
 1692              		.loc 1 168 9 view .LVU339
 1693 010a 08AB     		add	r3, sp, #32
 1694 010c 394A     		ldr	r2, .L166+48
 1695 010e 2021     		movs	r1, #32
 1696 0110 0CA8     		add	r0, sp, #48
 1697 0112 FFF7FEFF 		bl	snprintf
 1698              	.LVL146:
 169:User_App/app_display.c **** 
 1699              		.loc 1 169 9 view .LVU340
 1700 0116 0623     		movs	r3, #6
 1701 0118 0CAA     		add	r2, sp, #48
 1702 011a 1821     		movs	r1, #24
 1703 011c 0020     		movs	r0, #0
 1704 011e FFF7FEFF 		bl	OLED_ShowString
 1705              	.LVL147:
 171:User_App/app_display.c ****         OLED_ShowString(72, 24, line, OLED_6X8);
 1706              		.loc 1 171 9 view .LVU341
 1707 0122 E068     		ldr	r0, [r4, #12]	@ float
 1708 0124 FFF7FEFF 		bl	__aeabi_f2d
 1709              	.LVL148:
 1710 0128 CDE90001 		strd	r0, [sp]
 1711 012c 324A     		ldr	r2, .L166+52
 1712 012e 2021     		movs	r1, #32
ARM GAS  C:\Users\bubble\AppData\Local\Temp\cc51e8AY.s 			page 43


 1713 0130 0CA8     		add	r0, sp, #48
 1714 0132 FFF7FEFF 		bl	snprintf
 1715              	.LVL149:
 172:User_App/app_display.c **** 
 1716              		.loc 1 172 9 view .LVU342
 1717 0136 0623     		movs	r3, #6
 1718 0138 0CAA     		add	r2, sp, #48
 1719 013a 1821     		movs	r1, #24
 1720 013c 4820     		movs	r0, #72
 1721 013e FFF7FEFF 		bl	OLED_ShowString
 1722              	.LVL150:
 174:User_App/app_display.c ****                  sizeof(line),
 1723              		.loc 1 174 9 view .LVU343
 1724 0142 94F82100 		ldrb	r0, [r4, #33]	@ zero_extendqisi2
 1725 0146 FFF7FEFF 		bl	App_Display_RrefText
 1726              	.LVL151:
 1727 014a 0346     		mov	r3, r0
 178:User_App/app_display.c ****         OLED_ShowString(0, 32, line, OLED_6X8);
 1728              		.loc 1 178 34 is_stmt 0 view .LVU344
 1729 014c 94F82220 		ldrb	r2, [r4, #34]	@ zero_extendqisi2
 174:User_App/app_display.c ****                  sizeof(line),
 1730              		.loc 1 174 9 view .LVU345
 1731 0150 0092     		str	r2, [sp]
 1732 0152 2A4A     		ldr	r2, .L166+56
 1733 0154 2021     		movs	r1, #32
 1734 0156 0CA8     		add	r0, sp, #48
 1735 0158 FFF7FEFF 		bl	snprintf
 1736              	.LVL152:
 179:User_App/app_display.c ****     } else {
 1737              		.loc 1 179 9 is_stmt 1 view .LVU346
 1738 015c 0623     		movs	r3, #6
 1739 015e 0CAA     		add	r2, sp, #48
 1740 0160 2021     		movs	r1, #32
 1741 0162 0020     		movs	r0, #0
 1742 0164 FFF7FEFF 		bl	OLED_ShowString
 1743              	.LVL153:
 1744 0168 7EE7     		b	.L157
 1745              	.L164:
 194:User_App/app_display.c ****     } else {
 1746              		.loc 1 194 9 view .LVU347
 1747 016a 0623     		movs	r3, #6
 1748 016c 244A     		ldr	r2, .L166+60
 1749 016e 3821     		movs	r1, #56
 1750 0170 0020     		movs	r0, #0
 1751 0172 FFF7FEFF 		bl	OLED_ShowString
 1752              	.LVL154:
 1753 0176 AFE7     		b	.L153
 1754              	.L165:
 197:User_App/app_display.c ****             snprintf(line, sizeof(line), "Re=%s", zbuf);
 1755              		.loc 1 197 13 view .LVU348
 1756 0178 1021     		movs	r1, #16
 1757 017a 08A8     		add	r0, sp, #32
 1758 017c 94ED000A 		vldr.32	s0, [r4]
 1759 0180 FFF7FEFF 		bl	App_Display_FormatRes
 1760              	.LVL155:
 198:User_App/app_display.c ****             OLED_ShowString(0, 56, line, OLED_6X8);
 1761              		.loc 1 198 13 view .LVU349
ARM GAS  C:\Users\bubble\AppData\Local\Temp\cc51e8AY.s 			page 44


 1762 0184 08AB     		add	r3, sp, #32
 1763 0186 1F4A     		ldr	r2, .L166+64
 1764 0188 2021     		movs	r1, #32
 1765 018a 0CA8     		add	r0, sp, #48
 1766 018c FFF7FEFF 		bl	snprintf
 1767              	.LVL156:
 199:User_App/app_display.c **** 
 1768              		.loc 1 199 13 view .LVU350
 1769 0190 0623     		movs	r3, #6
 1770 0192 0CAA     		add	r2, sp, #48
 1771 0194 3821     		movs	r1, #56
 1772 0196 0020     		movs	r0, #0
 1773 0198 FFF7FEFF 		bl	OLED_ShowString
 1774              	.LVL157:
 201:User_App/app_display.c ****             snprintf(line, sizeof(line), "Im=%s", zbuf);
 1775              		.loc 1 201 13 view .LVU351
 1776 019c 1021     		movs	r1, #16
 1777 019e 08A8     		add	r0, sp, #32
 1778 01a0 94ED010A 		vldr.32	s0, [r4, #4]
 1779 01a4 FFF7FEFF 		bl	App_Display_FormatRes
 1780              	.LVL158:
 202:User_App/app_display.c ****             OLED_ShowString(64, 56, line, OLED_6X8);
 1781              		.loc 1 202 13 view .LVU352
 1782 01a8 08AB     		add	r3, sp, #32
 1783 01aa 174A     		ldr	r2, .L166+68
 1784 01ac 2021     		movs	r1, #32
 1785 01ae 0CA8     		add	r0, sp, #48
 1786 01b0 FFF7FEFF 		bl	snprintf
 1787              	.LVL159:
 203:User_App/app_display.c ****         } else {
 1788              		.loc 1 203 13 view .LVU353
 1789 01b4 0623     		movs	r3, #6
 1790 01b6 0CAA     		add	r2, sp, #48
 1791 01b8 3821     		movs	r1, #56
 1792 01ba 4020     		movs	r0, #64
 1793 01bc FFF7FEFF 		bl	OLED_ShowString
 1794              	.LVL160:
 1795 01c0 8AE7     		b	.L153
 1796              	.L167:
 1797 01c2 00BF     		.align	2
 1798              	.L166:
 1799 01c4 10000000 		.word	.LC34
 1800 01c8 38000000 		.word	.LC38
 1801 01cc 40000000 		.word	.LC39
 1802 01d0 48000000 		.word	.LC40
 1803 01d4 00000000 		.word	.LANCHOR6
 1804 01d8 00000000 		.word	.LANCHOR3
 1805 01dc 00000000 		.word	.LANCHOR7
 1806 01e0 54000000 		.word	.LC41
 1807 01e4 5C000000 		.word	.LC42
 1808 01e8 00000000 		.word	.LANCHOR0
 1809 01ec 90000000 		.word	.LC46
 1810 01f0 00000000 		.word	.LC33
 1811 01f4 1C000000 		.word	.LC35
 1812 01f8 24000000 		.word	.LC36
 1813 01fc 2C000000 		.word	.LC37
 1814 0200 68000000 		.word	.LC43
ARM GAS  C:\Users\bubble\AppData\Local\Temp\cc51e8AY.s 			page 45


 1815 0204 80000000 		.word	.LC44
 1816 0208 88000000 		.word	.LC45
 1817              		.cfi_endproc
 1818              	.LFE252:
 1820              		.section	.rodata.App_Display_DrawMenu.str1.4,"aMS",%progbits,1
 1821              		.align	2
 1822              	.LC47:
 1823 0000 4D656E75 		.ascii	"Menu(CaiDan)\000"
 1823      28436169 
 1823      44616E29 
 1823      00
 1824 000d 000000   		.align	2
 1825              	.LC48:
 1826 0010 4B322F4B 		.ascii	"K2/K3 move, K1 ok\000"
 1826      33206D6F 
 1826      76652C20 
 1826      4B31206F 
 1826      6B00
 1827 0022 0000     		.align	2
 1828              	.LC49:
 1829 0024 25632025 		.ascii	"%c %s\000"
 1829      7300
 1830 002a 0000     		.align	2
 1831              	.LC50:
 1832 002c 4B31206C 		.ascii	"K1 long: back\000"
 1832      6F6E673A 
 1832      20626163 
 1832      6B00
 1833              		.section	.text.App_Display_DrawMenu,"ax",%progbits
 1834              		.align	1
 1835              		.syntax unified
 1836              		.thumb
 1837              		.thumb_func
 1839              	App_Display_DrawMenu:
 1840              	.LFB253:
 211:User_App/app_display.c ****     uint8_t i;
 1841              		.loc 1 211 1 view -0
 1842              		.cfi_startproc
 1843              		@ args = 0, pretend = 0, frame = 24
 1844              		@ frame_needed = 0, uses_anonymous_args = 0
 1845 0000 10B5     		push	{r4, lr}
 1846              	.LCFI28:
 1847              		.cfi_def_cfa_offset 8
 1848              		.cfi_offset 4, -8
 1849              		.cfi_offset 14, -4
 1850 0002 88B0     		sub	sp, sp, #32
 1851              	.LCFI29:
 1852              		.cfi_def_cfa_offset 40
 212:User_App/app_display.c **** 
 1853              		.loc 1 212 5 view .LVU355
 214:User_App/app_display.c ****     OLED_ShowString(0, 8, "K2/K3 move, K1 ok", OLED_6X8);
 1854              		.loc 1 214 5 view .LVU356
 1855 0004 0623     		movs	r3, #6
 1856 0006 194A     		ldr	r2, .L176
 1857 0008 0021     		movs	r1, #0
 1858 000a 0846     		mov	r0, r1
 1859 000c FFF7FEFF 		bl	OLED_ShowString
ARM GAS  C:\Users\bubble\AppData\Local\Temp\cc51e8AY.s 			page 46


 1860              	.LVL161:
 215:User_App/app_display.c **** 
 1861              		.loc 1 215 5 view .LVU357
 1862 0010 0623     		movs	r3, #6
 1863 0012 174A     		ldr	r2, .L176+4
 1864 0014 0821     		movs	r1, #8
 1865 0016 0020     		movs	r0, #0
 1866 0018 FFF7FEFF 		bl	OLED_ShowString
 1867              	.LVL162:
 217:User_App/app_display.c ****         char line[24];
 1868              		.loc 1 217 5 view .LVU358
 217:User_App/app_display.c ****         char line[24];
 1869              		.loc 1 217 12 is_stmt 0 view .LVU359
 1870 001c 0024     		movs	r4, #0
 217:User_App/app_display.c ****         char line[24];
 1871              		.loc 1 217 5 view .LVU360
 1872 001e 15E0     		b	.L169
 1873              	.LVL163:
 1874              	.L175:
 1875              	.LBB2:
 219:User_App/app_display.c ****         OLED_ShowString(0, (uint8_t)(16u + i * 8u), line, OLED_6X8);
 1876              		.loc 1 219 9 view .LVU361
 1877 0020 3E23     		movs	r3, #62
 1878              	.L170:
 219:User_App/app_display.c ****         OLED_ShowString(0, (uint8_t)(16u + i * 8u), line, OLED_6X8);
 1879              		.loc 1 219 9 discriminator 4 view .LVU362
 1880 0022 144A     		ldr	r2, .L176+8
 1881 0024 52F82420 		ldr	r2, [r2, r4, lsl #2]
 1882 0028 0092     		str	r2, [sp]
 1883 002a 134A     		ldr	r2, .L176+12
 1884 002c 1821     		movs	r1, #24
 1885 002e 02A8     		add	r0, sp, #8
 1886 0030 FFF7FEFF 		bl	snprintf
 1887              	.LVL164:
 220:User_App/app_display.c ****     }
 1888              		.loc 1 220 9 is_stmt 1 discriminator 4 view .LVU363
 220:User_App/app_display.c ****     }
 1889              		.loc 1 220 42 is_stmt 0 discriminator 4 view .LVU364
 1890 0034 A11C     		adds	r1, r4, #2
 1891 0036 C9B2     		uxtb	r1, r1
 220:User_App/app_display.c ****     }
 1892              		.loc 1 220 9 discriminator 4 view .LVU365
 1893 0038 C900     		lsls	r1, r1, #3
 1894 003a 0623     		movs	r3, #6
 1895 003c 02AA     		add	r2, sp, #8
 1896 003e 01F0F801 		and	r1, r1, #248
 1897 0042 0020     		movs	r0, #0
 1898 0044 FFF7FEFF 		bl	OLED_ShowString
 1899              	.LVL165:
 1900              	.LBE2:
 217:User_App/app_display.c ****         char line[24];
 1901              		.loc 1 217 26 is_stmt 1 discriminator 4 view .LVU366
 217:User_App/app_display.c ****         char line[24];
 1902              		.loc 1 217 27 is_stmt 0 discriminator 4 view .LVU367
 1903 0048 0134     		adds	r4, r4, #1
 1904              	.LVL166:
 217:User_App/app_display.c ****         char line[24];
ARM GAS  C:\Users\bubble\AppData\Local\Temp\cc51e8AY.s 			page 47


 1905              		.loc 1 217 27 discriminator 4 view .LVU368
 1906 004a E4B2     		uxtb	r4, r4
 1907              	.LVL167:
 1908              	.L169:
 217:User_App/app_display.c ****         char line[24];
 1909              		.loc 1 217 18 is_stmt 1 discriminator 2 view .LVU369
 217:User_App/app_display.c ****         char line[24];
 1910              		.loc 1 217 5 is_stmt 0 discriminator 2 view .LVU370
 1911 004c 032C     		cmp	r4, #3
 1912 004e 05D8     		bhi	.L174
 1913              	.LBB3:
 218:User_App/app_display.c ****         snprintf(line, sizeof(line), "%c %s", (i == s_menu_index) ? '>' : ' ', kMenuItems[i]);
 1914              		.loc 1 218 9 is_stmt 1 view .LVU371
 219:User_App/app_display.c ****         OLED_ShowString(0, (uint8_t)(16u + i * 8u), line, OLED_6X8);
 1915              		.loc 1 219 9 view .LVU372
 219:User_App/app_display.c ****         OLED_ShowString(0, (uint8_t)(16u + i * 8u), line, OLED_6X8);
 1916              		.loc 1 219 50 is_stmt 0 view .LVU373
 1917 0050 0A4B     		ldr	r3, .L176+16
 1918 0052 1B78     		ldrb	r3, [r3]	@ zero_extendqisi2
 219:User_App/app_display.c ****         OLED_ShowString(0, (uint8_t)(16u + i * 8u), line, OLED_6X8);
 1919              		.loc 1 219 9 view .LVU374
 1920 0054 A342     		cmp	r3, r4
 1921 0056 E3D0     		beq	.L175
 1922 0058 2023     		movs	r3, #32
 1923 005a E2E7     		b	.L170
 1924              	.L174:
 1925              	.LBE3:
 223:User_App/app_display.c **** }
 1926              		.loc 1 223 5 is_stmt 1 view .LVU375
 1927 005c 0623     		movs	r3, #6
 1928 005e 084A     		ldr	r2, .L176+20
 1929 0060 3821     		movs	r1, #56
 1930 0062 0020     		movs	r0, #0
 1931 0064 FFF7FEFF 		bl	OLED_ShowString
 1932              	.LVL168:
 224:User_App/app_display.c **** 
 1933              		.loc 1 224 1 is_stmt 0 view .LVU376
 1934 0068 08B0     		add	sp, sp, #32
 1935              	.LCFI30:
 1936              		.cfi_def_cfa_offset 8
 1937              		@ sp needed
 1938 006a 10BD     		pop	{r4, pc}
 1939              	.LVL169:
 1940              	.L177:
 224:User_App/app_display.c **** 
 1941              		.loc 1 224 1 view .LVU377
 1942              		.align	2
 1943              	.L176:
 1944 006c 00000000 		.word	.LC47
 1945 0070 10000000 		.word	.LC48
 1946 0074 00000000 		.word	.LANCHOR8
 1947 0078 24000000 		.word	.LC49
 1948 007c 00000000 		.word	.LANCHOR2
 1949 0080 2C000000 		.word	.LC50
 1950              		.cfi_endproc
 1951              	.LFE253:
 1953              		.section	.rodata.App_Display_DrawSetFreq.str1.4,"aMS",%progbits,1
ARM GAS  C:\Users\bubble\AppData\Local\Temp\cc51e8AY.s 			page 48


 1954              		.align	2
 1955              	.LC51:
 1956 0000 50696E4C 		.ascii	"PinLv(Freq)\000"
 1956      76284672 
 1956      65712900 
 1957              		.align	2
 1958              	.LC52:
 1959 000c 4B322F4B 		.ascii	"K2/K3 change\000"
 1959      33206368 
 1959      616E6765 
 1959      00
 1960 0019 000000   		.align	2
 1961              	.LC53:
 1962 001c 3E202573 		.ascii	"> %s\000"
 1962      00
 1963              		.section	.text.App_Display_DrawSetFreq,"ax",%progbits
 1964              		.align	1
 1965              		.syntax unified
 1966              		.thumb
 1967              		.thumb_func
 1969              	App_Display_DrawSetFreq:
 1970              	.LFB254:
 227:User_App/app_display.c ****     char line[24];
 1971              		.loc 1 227 1 is_stmt 1 view -0
 1972              		.cfi_startproc
 1973              		@ args = 0, pretend = 0, frame = 24
 1974              		@ frame_needed = 0, uses_anonymous_args = 0
 1975 0000 00B5     		push	{lr}
 1976              	.LCFI31:
 1977              		.cfi_def_cfa_offset 4
 1978              		.cfi_offset 14, -4
 1979 0002 87B0     		sub	sp, sp, #28
 1980              	.LCFI32:
 1981              		.cfi_def_cfa_offset 32
 228:User_App/app_display.c **** 
 1982              		.loc 1 228 5 view .LVU379
 230:User_App/app_display.c ****     OLED_ShowString(0, 8, "K2/K3 change", OLED_6X8);
 1983              		.loc 1 230 5 view .LVU380
 1984 0004 0623     		movs	r3, #6
 1985 0006 124A     		ldr	r2, .L180
 1986 0008 0021     		movs	r1, #0
 1987 000a 0846     		mov	r0, r1
 1988 000c FFF7FEFF 		bl	OLED_ShowString
 1989              	.LVL170:
 231:User_App/app_display.c ****     OLED_ShowString(0, 16, "K1 save, long back", OLED_6X8);
 1990              		.loc 1 231 5 view .LVU381
 1991 0010 0623     		movs	r3, #6
 1992 0012 104A     		ldr	r2, .L180+4
 1993 0014 0821     		movs	r1, #8
 1994 0016 0020     		movs	r0, #0
 1995 0018 FFF7FEFF 		bl	OLED_ShowString
 1996              	.LVL171:
 232:User_App/app_display.c **** 
 1997              		.loc 1 232 5 view .LVU382
 1998 001c 0623     		movs	r3, #6
 1999 001e 0E4A     		ldr	r2, .L180+8
 2000 0020 1021     		movs	r1, #16
ARM GAS  C:\Users\bubble\AppData\Local\Temp\cc51e8AY.s 			page 49


 2001 0022 0020     		movs	r0, #0
 2002 0024 FFF7FEFF 		bl	OLED_ShowString
 2003              	.LVL172:
 234:User_App/app_display.c ****     OLED_ShowString(0, 32, line, OLED_8X16);
 2004              		.loc 1 234 5 view .LVU383
 2005 0028 0C4B     		ldr	r3, .L180+12
 2006 002a 1A78     		ldrb	r2, [r3]	@ zero_extendqisi2
 2007 002c 0C4B     		ldr	r3, .L180+16
 2008 002e 53F82230 		ldr	r3, [r3, r2, lsl #2]
 2009 0032 0C4A     		ldr	r2, .L180+20
 2010 0034 1821     		movs	r1, #24
 2011 0036 6846     		mov	r0, sp
 2012 0038 FFF7FEFF 		bl	snprintf
 2013              	.LVL173:
 235:User_App/app_display.c **** }
 2014              		.loc 1 235 5 view .LVU384
 2015 003c 0823     		movs	r3, #8
 2016 003e 6A46     		mov	r2, sp
 2017 0040 2021     		movs	r1, #32
 2018 0042 0020     		movs	r0, #0
 2019 0044 FFF7FEFF 		bl	OLED_ShowString
 2020              	.LVL174:
 236:User_App/app_display.c **** 
 2021              		.loc 1 236 1 is_stmt 0 view .LVU385
 2022 0048 07B0     		add	sp, sp, #28
 2023              	.LCFI33:
 2024              		.cfi_def_cfa_offset 4
 2025              		@ sp needed
 2026 004a 5DF804FB 		ldr	pc, [sp], #4
 2027              	.L181:
 2028 004e 00BF     		.align	2
 2029              	.L180:
 2030 0050 00000000 		.word	.LC51
 2031 0054 0C000000 		.word	.LC52
 2032 0058 20000000 		.word	.LC7
 2033 005c 00000000 		.word	.LANCHOR3
 2034 0060 00000000 		.word	.LANCHOR7
 2035 0064 1C000000 		.word	.LC53
 2036              		.cfi_endproc
 2037              	.LFE254:
 2039              		.section	.rodata.App_Display_DrawSetAmp.str1.4,"aMS",%progbits,1
 2040              		.align	2
 2041              	.LC54:
 2042 0000 5A68656E 		.ascii	"ZhenFu(Amp)\000"
 2042      46752841 
 2042      6D702900 
 2043              		.section	.text.App_Display_DrawSetAmp,"ax",%progbits
 2044              		.align	1
 2045              		.syntax unified
 2046              		.thumb
 2047              		.thumb_func
 2049              	App_Display_DrawSetAmp:
 2050              	.LFB255:
 239:User_App/app_display.c ****     char line[24];
 2051              		.loc 1 239 1 is_stmt 1 view -0
 2052              		.cfi_startproc
 2053              		@ args = 0, pretend = 0, frame = 24
ARM GAS  C:\Users\bubble\AppData\Local\Temp\cc51e8AY.s 			page 50


 2054              		@ frame_needed = 0, uses_anonymous_args = 0
 2055 0000 00B5     		push	{lr}
 2056              	.LCFI34:
 2057              		.cfi_def_cfa_offset 4
 2058              		.cfi_offset 14, -4
 2059 0002 87B0     		sub	sp, sp, #28
 2060              	.LCFI35:
 2061              		.cfi_def_cfa_offset 32
 240:User_App/app_display.c **** 
 2062              		.loc 1 240 5 view .LVU387
 242:User_App/app_display.c ****     OLED_ShowString(0, 8, "K2/K3 change", OLED_6X8);
 2063              		.loc 1 242 5 view .LVU388
 2064 0004 0623     		movs	r3, #6
 2065 0006 124A     		ldr	r2, .L184
 2066 0008 0021     		movs	r1, #0
 2067 000a 0846     		mov	r0, r1
 2068 000c FFF7FEFF 		bl	OLED_ShowString
 2069              	.LVL175:
 243:User_App/app_display.c ****     OLED_ShowString(0, 16, "K1 save, long back", OLED_6X8);
 2070              		.loc 1 243 5 view .LVU389
 2071 0010 0623     		movs	r3, #6
 2072 0012 104A     		ldr	r2, .L184+4
 2073 0014 0821     		movs	r1, #8
 2074 0016 0020     		movs	r0, #0
 2075 0018 FFF7FEFF 		bl	OLED_ShowString
 2076              	.LVL176:
 244:User_App/app_display.c **** 
 2077              		.loc 1 244 5 view .LVU390
 2078 001c 0623     		movs	r3, #6
 2079 001e 0E4A     		ldr	r2, .L184+8
 2080 0020 1021     		movs	r1, #16
 2081 0022 0020     		movs	r0, #0
 2082 0024 FFF7FEFF 		bl	OLED_ShowString
 2083              	.LVL177:
 246:User_App/app_display.c ****     OLED_ShowString(0, 32, line, OLED_8X16);
 2084              		.loc 1 246 5 view .LVU391
 2085 0028 0C4B     		ldr	r3, .L184+12
 2086 002a 1A78     		ldrb	r2, [r3]	@ zero_extendqisi2
 2087 002c 0C4B     		ldr	r3, .L184+16
 2088 002e 53F82230 		ldr	r3, [r3, r2, lsl #2]
 2089 0032 0C4A     		ldr	r2, .L184+20
 2090 0034 1821     		movs	r1, #24
 2091 0036 6846     		mov	r0, sp
 2092 0038 FFF7FEFF 		bl	snprintf
 2093              	.LVL178:
 247:User_App/app_display.c **** }
 2094              		.loc 1 247 5 view .LVU392
 2095 003c 0823     		movs	r3, #8
 2096 003e 6A46     		mov	r2, sp
 2097 0040 2021     		movs	r1, #32
 2098 0042 0020     		movs	r0, #0
 2099 0044 FFF7FEFF 		bl	OLED_ShowString
 2100              	.LVL179:
 248:User_App/app_display.c **** 
 2101              		.loc 1 248 1 is_stmt 0 view .LVU393
 2102 0048 07B0     		add	sp, sp, #28
 2103              	.LCFI36:
ARM GAS  C:\Users\bubble\AppData\Local\Temp\cc51e8AY.s 			page 51


 2104              		.cfi_def_cfa_offset 4
 2105              		@ sp needed
 2106 004a 5DF804FB 		ldr	pc, [sp], #4
 2107              	.L185:
 2108 004e 00BF     		.align	2
 2109              	.L184:
 2110 0050 00000000 		.word	.LC54
 2111 0054 0C000000 		.word	.LC52
 2112 0058 20000000 		.word	.LC7
 2113 005c 00000000 		.word	.LANCHOR5
 2114 0060 00000000 		.word	.LANCHOR9
 2115 0064 1C000000 		.word	.LC53
 2116              		.cfi_endproc
 2117              	.LFE255:
 2119              		.section	.rodata.App_Display_Init.str1.4,"aMS",%progbits,1
 2120              		.align	2
 2121              	.LC55:
 2122 0000 4C435220 		.ascii	"LCR Meter\000"
 2122      4D657465 
 2122      7200
 2123 000a 0000     		.align	2
 2124              	.LC56:
 2125 000c 496E6974 		.ascii	"Init...\000"
 2125      2E2E2E00 
 2126              		.section	.text.App_Display_Init,"ax",%progbits
 2127              		.align	1
 2128              		.global	App_Display_Init
 2129              		.syntax unified
 2130              		.thumb
 2131              		.thumb_func
 2133              	App_Display_Init:
 2134              	.LFB259:
 366:User_App/app_display.c **** 
 367:User_App/app_display.c **** void App_Display_Init(void)
 368:User_App/app_display.c **** {
 2135              		.loc 1 368 1 is_stmt 1 view -0
 2136              		.cfi_startproc
 2137              		@ args = 0, pretend = 0, frame = 0
 2138              		@ frame_needed = 0, uses_anonymous_args = 0
 2139 0000 10B5     		push	{r4, lr}
 2140              	.LCFI37:
 2141              		.cfi_def_cfa_offset 8
 2142              		.cfi_offset 4, -8
 2143              		.cfi_offset 14, -4
 369:User_App/app_display.c ****     memset(&s_last_result, 0, sizeof(s_last_result));
 2144              		.loc 1 369 5 view .LVU395
 2145 0002 2422     		movs	r2, #36
 2146 0004 0021     		movs	r1, #0
 2147 0006 1948     		ldr	r0, .L188
 2148 0008 FFF7FEFF 		bl	memset
 2149              	.LVL180:
 370:User_App/app_display.c **** 
 371:User_App/app_display.c ****     OLED_Init();
 2150              		.loc 1 371 5 view .LVU396
 2151 000c FFF7FEFF 		bl	OLED_Init
 2152              	.LVL181:
 372:User_App/app_display.c ****     OLED_Clear();
ARM GAS  C:\Users\bubble\AppData\Local\Temp\cc51e8AY.s 			page 52


 2153              		.loc 1 372 5 view .LVU397
 2154 0010 FFF7FEFF 		bl	OLED_Clear
 2155              	.LVL182:
 373:User_App/app_display.c ****     OLED_ShowString(16, 8, "LCR Meter", OLED_8X16);
 2156              		.loc 1 373 5 view .LVU398
 2157 0014 0823     		movs	r3, #8
 2158 0016 164A     		ldr	r2, .L188+4
 2159 0018 1946     		mov	r1, r3
 2160 001a 1020     		movs	r0, #16
 2161 001c FFF7FEFF 		bl	OLED_ShowString
 2162              	.LVL183:
 374:User_App/app_display.c ****     OLED_ShowString(8, 32, "Init...", OLED_6X8);
 2163              		.loc 1 374 5 view .LVU399
 2164 0020 0623     		movs	r3, #6
 2165 0022 144A     		ldr	r2, .L188+8
 2166 0024 2021     		movs	r1, #32
 2167 0026 0820     		movs	r0, #8
 2168 0028 FFF7FEFF 		bl	OLED_ShowString
 2169              	.LVL184:
 375:User_App/app_display.c ****     OLED_Update();
 2170              		.loc 1 375 5 view .LVU400
 2171 002c FFF7FEFF 		bl	OLED_Update
 2172              	.LVL185:
 376:User_App/app_display.c ****     osDelay(400u);
 2173              		.loc 1 376 5 view .LVU401
 2174 0030 4FF4C870 		mov	r0, #400
 2175 0034 FFF7FEFF 		bl	osDelay
 2176              	.LVL186:
 377:User_App/app_display.c **** 
 378:User_App/app_display.c ****     s_screen = SCREEN_MEASURE;
 2177              		.loc 1 378 5 view .LVU402
 2178              		.loc 1 378 14 is_stmt 0 view .LVU403
 2179 0038 0023     		movs	r3, #0
 2180 003a 0F4A     		ldr	r2, .L188+12
 2181 003c 1370     		strb	r3, [r2]
 379:User_App/app_display.c ****     s_disp_mode = DISP_MODE_NORMAL;
 2182              		.loc 1 379 5 is_stmt 1 view .LVU404
 2183              		.loc 1 379 17 is_stmt 0 view .LVU405
 2184 003e 0F4A     		ldr	r2, .L188+16
 2185 0040 1370     		strb	r3, [r2]
 380:User_App/app_display.c ****     s_menu_index = 0u;
 2186              		.loc 1 380 5 is_stmt 1 view .LVU406
 2187              		.loc 1 380 18 is_stmt 0 view .LVU407
 2188 0042 0F4A     		ldr	r2, .L188+20
 2189 0044 1370     		strb	r3, [r2]
 381:User_App/app_display.c ****     s_freq_index = 1u;
 2190              		.loc 1 381 5 is_stmt 1 view .LVU408
 2191              		.loc 1 381 18 is_stmt 0 view .LVU409
 2192 0046 0F4A     		ldr	r2, .L188+24
 2193 0048 0121     		movs	r1, #1
 2194 004a 1170     		strb	r1, [r2]
 382:User_App/app_display.c ****     s_amp_index = 0u;
 2195              		.loc 1 382 5 is_stmt 1 view .LVU410
 2196              		.loc 1 382 17 is_stmt 0 view .LVU411
 2197 004c 0E4C     		ldr	r4, .L188+28
 2198 004e 2370     		strb	r3, [r4]
 383:User_App/app_display.c **** 
ARM GAS  C:\Users\bubble\AppData\Local\Temp\cc51e8AY.s 			page 53


 384:User_App/app_display.c ****     App_Measure_SetFreq(kFreqList[s_freq_index]);
 2199              		.loc 1 384 5 is_stmt 1 view .LVU412
 2200 0050 4FF47A70 		mov	r0, #1000
 2201 0054 FFF7FEFF 		bl	App_Measure_SetFreq
 2202              	.LVL187:
 385:User_App/app_display.c ****     BSP_AFE_SetDDSAmp((AFE_DDS_Amp_t)s_amp_index);
 2203              		.loc 1 385 5 view .LVU413
 2204 0058 2078     		ldrb	r0, [r4]	@ zero_extendqisi2
 2205 005a FFF7FEFF 		bl	BSP_AFE_SetDDSAmp
 2206              	.LVL188:
 386:User_App/app_display.c **** 
 387:User_App/app_display.c ****     s_bat_v = App_Measure_GetBatVoltage();
 2207              		.loc 1 387 5 view .LVU414
 2208              		.loc 1 387 15 is_stmt 0 view .LVU415
 2209 005e FFF7FEFF 		bl	App_Measure_GetBatVoltage
 2210              	.LVL189:
 2211              		.loc 1 387 13 view .LVU416
 2212 0062 0A4B     		ldr	r3, .L188+32
 2213 0064 83ED000A 		vstr.32	s0, [r3]
 388:User_App/app_display.c **** }
 2214              		.loc 1 388 1 view .LVU417
 2215 0068 10BD     		pop	{r4, pc}
 2216              	.L189:
 2217 006a 00BF     		.align	2
 2218              	.L188:
 2219 006c 00000000 		.word	.LANCHOR10
 2220 0070 00000000 		.word	.LC55
 2221 0074 0C000000 		.word	.LC56
 2222 0078 00000000 		.word	.LANCHOR1
 2223 007c 00000000 		.word	.LANCHOR0
 2224 0080 00000000 		.word	.LANCHOR2
 2225 0084 00000000 		.word	.LANCHOR3
 2226 0088 00000000 		.word	.LANCHOR5
 2227 008c 00000000 		.word	.LANCHOR6
 2228              		.cfi_endproc
 2229              	.LFE259:
 2231              		.section	.text.App_Display_Run,"ax",%progbits
 2232              		.align	1
 2233              		.global	App_Display_Run
 2234              		.syntax unified
 2235              		.thumb
 2236              		.thumb_func
 2238              	App_Display_Run:
 2239              	.LFB260:
 389:User_App/app_display.c **** 
 390:User_App/app_display.c **** void App_Display_Run(void)
 391:User_App/app_display.c **** {
 2240              		.loc 1 391 1 is_stmt 1 view -0
 2241              		.cfi_startproc
 2242              		@ args = 0, pretend = 0, frame = 40
 2243              		@ frame_needed = 0, uses_anonymous_args = 0
 2244 0000 10B5     		push	{r4, lr}
 2245              	.LCFI38:
 2246              		.cfi_def_cfa_offset 8
 2247              		.cfi_offset 4, -8
 2248              		.cfi_offset 14, -4
 2249 0002 8AB0     		sub	sp, sp, #40
ARM GAS  C:\Users\bubble\AppData\Local\Temp\cc51e8AY.s 			page 54


 2250              	.LCFI39:
 2251              		.cfi_def_cfa_offset 48
 392:User_App/app_display.c ****     uint8_t raw_cmd;
 2252              		.loc 1 392 5 view .LVU419
 393:User_App/app_display.c ****     MeasureResult_t current = s_last_result;
 2253              		.loc 1 393 5 view .LVU420
 2254              		.loc 1 393 21 is_stmt 0 view .LVU421
 2255 0004 EC46     		mov	ip, sp
 2256 0006 304C     		ldr	r4, .L206
 2257 0008 0FCC     		ldmia	r4!, {r0, r1, r2, r3}
 2258 000a ACE80F00 		stmia	ip!, {r0, r1, r2, r3}
 2259 000e 0FCC     		ldmia	r4!, {r0, r1, r2, r3}
 2260 0010 ACE80F00 		stmia	ip!, {r0, r1, r2, r3}
 2261 0014 2368     		ldr	r3, [r4]
 2262 0016 CCF80030 		str	r3, [ip]
 394:User_App/app_display.c **** 
 395:User_App/app_display.c ****     while (osMessageQueueGet(Queue_CmdHandle, &raw_cmd, NULL, 0u) == osOK) {
 2263              		.loc 1 395 5 is_stmt 1 view .LVU422
 2264              		.loc 1 395 11 is_stmt 0 view .LVU423
 2265 001a 03E0     		b	.L191
 2266              	.L192:
 396:User_App/app_display.c ****         App_Display_HandleCmd((KeyCmd_t)raw_cmd);
 2267              		.loc 1 396 9 is_stmt 1 view .LVU424
 2268 001c 9DF82700 		ldrb	r0, [sp, #39]	@ zero_extendqisi2
 2269 0020 FFF7FEFF 		bl	App_Display_HandleCmd
 2270              	.LVL190:
 2271              	.L191:
 395:User_App/app_display.c ****         App_Display_HandleCmd((KeyCmd_t)raw_cmd);
 2272              		.loc 1 395 11 view .LVU425
 395:User_App/app_display.c ****         App_Display_HandleCmd((KeyCmd_t)raw_cmd);
 2273              		.loc 1 395 12 is_stmt 0 view .LVU426
 2274 0024 0023     		movs	r3, #0
 2275 0026 1A46     		mov	r2, r3
 2276 0028 0DF12701 		add	r1, sp, #39
 2277 002c 2748     		ldr	r0, .L206+4
 2278 002e 0068     		ldr	r0, [r0]
 2279 0030 FFF7FEFF 		bl	osMessageQueueGet
 2280              	.LVL191:
 395:User_App/app_display.c ****         App_Display_HandleCmd((KeyCmd_t)raw_cmd);
 2281              		.loc 1 395 11 view .LVU427
 2282 0034 0028     		cmp	r0, #0
 2283 0036 F1D0     		beq	.L192
 397:User_App/app_display.c ****     }
 398:User_App/app_display.c **** 
 399:User_App/app_display.c ****     s_bat_ticks++;
 2284              		.loc 1 399 5 is_stmt 1 view .LVU428
 2285              		.loc 1 399 16 is_stmt 0 view .LVU429
 2286 0038 254A     		ldr	r2, .L206+8
 2287 003a 1388     		ldrh	r3, [r2]
 2288 003c 0133     		adds	r3, r3, #1
 2289 003e 9BB2     		uxth	r3, r3
 2290 0040 1380     		strh	r3, [r2]	@ movhi
 400:User_App/app_display.c ****     if (s_bat_ticks >= 100u) {
 2291              		.loc 1 400 5 is_stmt 1 view .LVU430
 2292              		.loc 1 400 8 is_stmt 0 view .LVU431
 2293 0042 632B     		cmp	r3, #99
 2294 0044 19D8     		bhi	.L205
ARM GAS  C:\Users\bubble\AppData\Local\Temp\cc51e8AY.s 			page 55


 2295              	.L193:
 401:User_App/app_display.c ****         s_bat_ticks = 0u;
 402:User_App/app_display.c ****         s_bat_v = App_Measure_GetBatVoltage();
 403:User_App/app_display.c ****     }
 404:User_App/app_display.c **** 
 405:User_App/app_display.c ****     if (App_Measure_GetResult(&current) != 0u) {
 2296              		.loc 1 405 5 is_stmt 1 view .LVU432
 2297              		.loc 1 405 9 is_stmt 0 view .LVU433
 2298 0046 6846     		mov	r0, sp
 2299 0048 FFF7FEFF 		bl	App_Measure_GetResult
 2300              	.LVL192:
 2301              		.loc 1 405 8 view .LVU434
 2302 004c 50B1     		cbz	r0, .L194
 406:User_App/app_display.c ****         s_last_result = current;
 2303              		.loc 1 406 9 is_stmt 1 view .LVU435
 2304              		.loc 1 406 23 is_stmt 0 view .LVU436
 2305 004e 1E4C     		ldr	r4, .L206
 2306 0050 EC46     		mov	ip, sp
 2307 0052 BCE80F00 		ldmia	ip!, {r0, r1, r2, r3}
 2308 0056 0FC4     		stmia	r4!, {r0, r1, r2, r3}
 2309 0058 BCE80F00 		ldmia	ip!, {r0, r1, r2, r3}
 2310 005c 0FC4     		stmia	r4!, {r0, r1, r2, r3}
 2311 005e DCF80030 		ldr	r3, [ip]
 2312 0062 2360     		str	r3, [r4]
 2313              	.L194:
 407:User_App/app_display.c ****     }
 408:User_App/app_display.c **** 
 409:User_App/app_display.c ****     OLED_Clear();
 2314              		.loc 1 409 5 is_stmt 1 view .LVU437
 2315 0064 FFF7FEFF 		bl	OLED_Clear
 2316              	.LVL193:
 410:User_App/app_display.c **** 
 411:User_App/app_display.c ****     switch (s_screen) {
 2317              		.loc 1 411 5 view .LVU438
 2318 0068 1A4B     		ldr	r3, .L206+12
 2319 006a 1B78     		ldrb	r3, [r3]	@ zero_extendqisi2
 2320 006c 052B     		cmp	r3, #5
 2321 006e 26D8     		bhi	.L195
 2322 0070 DFE803F0 		tbb	[pc, r3]
 2323              	.L197:
 2324 0074 0C       		.byte	(.L202-.L197)/2
 2325 0075 16       		.byte	(.L201-.L197)/2
 2326 0076 19       		.byte	(.L200-.L197)/2
 2327 0077 1C       		.byte	(.L199-.L197)/2
 2328 0078 1F       		.byte	(.L198-.L197)/2
 2329 0079 22       		.byte	(.L196-.L197)/2
 2330              		.p2align 1
 2331              	.L205:
 401:User_App/app_display.c ****         s_bat_v = App_Measure_GetBatVoltage();
 2332              		.loc 1 401 9 view .LVU439
 401:User_App/app_display.c ****         s_bat_v = App_Measure_GetBatVoltage();
 2333              		.loc 1 401 21 is_stmt 0 view .LVU440
 2334 007a 1346     		mov	r3, r2
 2335 007c 0022     		movs	r2, #0
 2336 007e 1A80     		strh	r2, [r3]	@ movhi
 402:User_App/app_display.c ****     }
 2337              		.loc 1 402 9 is_stmt 1 view .LVU441
ARM GAS  C:\Users\bubble\AppData\Local\Temp\cc51e8AY.s 			page 56


 402:User_App/app_display.c ****     }
 2338              		.loc 1 402 19 is_stmt 0 view .LVU442
 2339 0080 FFF7FEFF 		bl	App_Measure_GetBatVoltage
 2340              	.LVL194:
 402:User_App/app_display.c ****     }
 2341              		.loc 1 402 17 view .LVU443
 2342 0084 144B     		ldr	r3, .L206+16
 2343 0086 83ED000A 		vstr.32	s0, [r3]
 2344 008a DCE7     		b	.L193
 2345              	.L202:
 412:User_App/app_display.c ****     case SCREEN_MEASURE:
 413:User_App/app_display.c ****         App_Display_DrawMeasure(&s_last_result);
 2346              		.loc 1 413 9 is_stmt 1 view .LVU444
 2347 008c 0E48     		ldr	r0, .L206
 2348 008e FFF7FEFF 		bl	App_Display_DrawMeasure
 2349              	.LVL195:
 414:User_App/app_display.c ****         break;
 2350              		.loc 1 414 9 view .LVU445
 2351              	.L203:
 415:User_App/app_display.c ****     case SCREEN_MENU:
 416:User_App/app_display.c ****         App_Display_DrawMenu();
 417:User_App/app_display.c ****         break;
 418:User_App/app_display.c ****     case SCREEN_SET_FREQ:
 419:User_App/app_display.c ****         App_Display_DrawSetFreq();
 420:User_App/app_display.c ****         break;
 421:User_App/app_display.c ****     case SCREEN_SET_AMP:
 422:User_App/app_display.c ****         App_Display_DrawSetAmp();
 423:User_App/app_display.c ****         break;
 424:User_App/app_display.c ****     case SCREEN_SET_DISPMODE:
 425:User_App/app_display.c ****         App_Display_DrawSetMode();
 426:User_App/app_display.c ****         break;
 427:User_App/app_display.c ****     case SCREEN_ABOUT:
 428:User_App/app_display.c ****         App_Display_DrawAbout();
 429:User_App/app_display.c ****         break;
 430:User_App/app_display.c ****     default:
 431:User_App/app_display.c ****         s_screen = SCREEN_MEASURE;
 432:User_App/app_display.c ****         break;
 433:User_App/app_display.c ****     }
 434:User_App/app_display.c **** 
 435:User_App/app_display.c ****     OLED_Update();
 2352              		.loc 1 435 5 view .LVU446
 2353 0092 FFF7FEFF 		bl	OLED_Update
 2354              	.LVL196:
 436:User_App/app_display.c ****     osDelay(100u);
 2355              		.loc 1 436 5 view .LVU447
 2356 0096 6420     		movs	r0, #100
 2357 0098 FFF7FEFF 		bl	osDelay
 2358              	.LVL197:
 437:User_App/app_display.c **** }
 2359              		.loc 1 437 1 is_stmt 0 view .LVU448
 2360 009c 0AB0     		add	sp, sp, #40
 2361              	.LCFI40:
 2362              		.cfi_remember_state
 2363              		.cfi_def_cfa_offset 8
 2364              		@ sp needed
 2365 009e 10BD     		pop	{r4, pc}
 2366              	.L201:
ARM GAS  C:\Users\bubble\AppData\Local\Temp\cc51e8AY.s 			page 57


 2367              	.LCFI41:
 2368              		.cfi_restore_state
 416:User_App/app_display.c ****         break;
 2369              		.loc 1 416 9 is_stmt 1 view .LVU449
 2370 00a0 FFF7FEFF 		bl	App_Display_DrawMenu
 2371              	.LVL198:
 417:User_App/app_display.c ****     case SCREEN_SET_FREQ:
 2372              		.loc 1 417 9 view .LVU450
 2373 00a4 F5E7     		b	.L203
 2374              	.L200:
 419:User_App/app_display.c ****         break;
 2375              		.loc 1 419 9 view .LVU451
 2376 00a6 FFF7FEFF 		bl	App_Display_DrawSetFreq
 2377              	.LVL199:
 420:User_App/app_display.c ****     case SCREEN_SET_AMP:
 2378              		.loc 1 420 9 view .LVU452
 2379 00aa F2E7     		b	.L203
 2380              	.L199:
 422:User_App/app_display.c ****         break;
 2381              		.loc 1 422 9 view .LVU453
 2382 00ac FFF7FEFF 		bl	App_Display_DrawSetAmp
 2383              	.LVL200:
 423:User_App/app_display.c ****     case SCREEN_SET_DISPMODE:
 2384              		.loc 1 423 9 view .LVU454
 2385 00b0 EFE7     		b	.L203
 2386              	.L198:
 425:User_App/app_display.c ****         break;
 2387              		.loc 1 425 9 view .LVU455
 2388 00b2 FFF7FEFF 		bl	App_Display_DrawSetMode
 2389              	.LVL201:
 426:User_App/app_display.c ****     case SCREEN_ABOUT:
 2390              		.loc 1 426 9 view .LVU456
 2391 00b6 ECE7     		b	.L203
 2392              	.L196:
 428:User_App/app_display.c ****         break;
 2393              		.loc 1 428 9 view .LVU457
 2394 00b8 FFF7FEFF 		bl	App_Display_DrawAbout
 2395              	.LVL202:
 429:User_App/app_display.c ****     default:
 2396              		.loc 1 429 9 view .LVU458
 2397 00bc E9E7     		b	.L203
 2398              	.L195:
 431:User_App/app_display.c ****         break;
 2399              		.loc 1 431 9 view .LVU459
 431:User_App/app_display.c ****         break;
 2400              		.loc 1 431 18 is_stmt 0 view .LVU460
 2401 00be 054B     		ldr	r3, .L206+12
 2402 00c0 0022     		movs	r2, #0
 2403 00c2 1A70     		strb	r2, [r3]
 432:User_App/app_display.c ****     }
 2404              		.loc 1 432 9 is_stmt 1 view .LVU461
 2405 00c4 E5E7     		b	.L203
 2406              	.L207:
 2407 00c6 00BF     		.align	2
 2408              	.L206:
 2409 00c8 00000000 		.word	.LANCHOR10
 2410 00cc 00000000 		.word	Queue_CmdHandle
ARM GAS  C:\Users\bubble\AppData\Local\Temp\cc51e8AY.s 			page 58


 2411 00d0 00000000 		.word	.LANCHOR11
 2412 00d4 00000000 		.word	.LANCHOR1
 2413 00d8 00000000 		.word	.LANCHOR6
 2414              		.cfi_endproc
 2415              	.LFE260:
 2417              		.section	.rodata.str1.4,"aMS",%progbits,1
 2418              		.align	2
 2419              	.LC57:
 2420 0000 302E3356 		.ascii	"0.3Vr\000"
 2420      7200
 2421 0006 0000     		.align	2
 2422              	.LC58:
 2423 0008 302E3656 		.ascii	"0.6Vr\000"
 2423      7200
 2424 000e 0000     		.align	2
 2425              	.LC59:
 2426 0010 312E3056 		.ascii	"1.0Vr\000"
 2426      7200
 2427 0016 0000     		.align	2
 2428              	.LC60:
 2429 0018 31303048 		.ascii	"100Hz\000"
 2429      7A00
 2430 001e 0000     		.align	2
 2431              	.LC61:
 2432 0020 316B487A 		.ascii	"1kHz\000"
 2432      00
 2433 0025 000000   		.align	2
 2434              	.LC62:
 2435 0028 31306B48 		.ascii	"10kHz\000"
 2435      7A00
 2436 002e 0000     		.align	2
 2437              	.LC63:
 2438 0030 3130306B 		.ascii	"100kHz\000"
 2438      487A00
 2439              		.section	.bss.s_amp_index,"aw",%nobits
 2440              		.set	.LANCHOR5,. + 0
 2443              	s_amp_index:
 2444 0000 00       		.space	1
 2445              		.section	.bss.s_bat_ticks,"aw",%nobits
 2446              		.align	1
 2447              		.set	.LANCHOR11,. + 0
 2450              	s_bat_ticks:
 2451 0000 0000     		.space	2
 2452              		.section	.bss.s_disp_mode,"aw",%nobits
 2453              		.set	.LANCHOR0,. + 0
 2456              	s_disp_mode:
 2457 0000 00       		.space	1
 2458              		.section	.bss.s_last_result,"aw",%nobits
 2459              		.align	2
 2460              		.set	.LANCHOR10,. + 0
 2463              	s_last_result:
 2464 0000 00000000 		.space	36
 2464      00000000 
 2464      00000000 
 2464      00000000 
 2464      00000000 
 2465              		.section	.bss.s_menu_index,"aw",%nobits
ARM GAS  C:\Users\bubble\AppData\Local\Temp\cc51e8AY.s 			page 59


 2466              		.set	.LANCHOR2,. + 0
 2469              	s_menu_index:
 2470 0000 00       		.space	1
 2471              		.section	.bss.s_screen,"aw",%nobits
 2472              		.set	.LANCHOR1,. + 0
 2475              	s_screen:
 2476 0000 00       		.space	1
 2477              		.section	.data.s_bat_v,"aw"
 2478              		.align	2
 2479              		.set	.LANCHOR6,. + 0
 2482              	s_bat_v:
 2483 0000 CDCC6C40 		.word	1080872141
 2484              		.section	.data.s_freq_index,"aw"
 2485              		.set	.LANCHOR3,. + 0
 2488              	s_freq_index:
 2489 0000 01       		.byte	1
 2490              		.section	.rodata.kAmpStr,"a"
 2491              		.align	2
 2492              		.set	.LANCHOR9,. + 0
 2495              	kAmpStr:
 2496 0000 00000000 		.word	.LC57
 2497 0004 08000000 		.word	.LC58
 2498 0008 10000000 		.word	.LC59
 2499              		.section	.rodata.kFreqList,"a"
 2500              		.align	2
 2501              		.set	.LANCHOR4,. + 0
 2504              	kFreqList:
 2505 0000 64000000 		.word	100
 2506 0004 E8030000 		.word	1000
 2507 0008 10270000 		.word	10000
 2508 000c A0860100 		.word	100000
 2509              		.section	.rodata.kFreqStr,"a"
 2510              		.align	2
 2511              		.set	.LANCHOR7,. + 0
 2514              	kFreqStr:
 2515 0000 18000000 		.word	.LC60
 2516 0004 20000000 		.word	.LC61
 2517 0008 28000000 		.word	.LC62
 2518 000c 30000000 		.word	.LC63
 2519              		.section	.rodata.kMenuItems,"a"
 2520              		.align	2
 2521              		.set	.LANCHOR8,. + 0
 2524              	kMenuItems:
 2525 0000 00000000 		.word	.LC51
 2526 0004 00000000 		.word	.LC54
 2527 0008 00000000 		.word	.LC5
 2528 000c 00000000 		.word	.LC10
 2529              		.text
 2530              	.Letext0:
 2531              		.file 2 "d:\\app\\clion-dependency\\gcc-arm\\arm-none-eabi\\include\\machine\\_default_types.h"
 2532              		.file 3 "d:\\app\\clion-dependency\\gcc-arm\\arm-none-eabi\\include\\sys\\_stdint.h"
 2533              		.file 4 "User_App/app_display.h"
 2534              		.file 5 "User_App/app_key.h"
 2535              		.file 6 "Middlewares/Third_Party/FreeRTOS/Source/CMSIS_RTOS_V2/cmsis_os2.h"
 2536              		.file 7 "User_BSP/bsp_afe.h"
 2537              		.file 8 "User_App/system_data.h"
 2538              		.file 9 "User_App/app_measure.h"
ARM GAS  C:\Users\bubble\AppData\Local\Temp\cc51e8AY.s 			page 60


 2539              		.file 10 "User_BSP/OLED.h"
 2540              		.file 11 "d:\\app\\clion-dependency\\gcc-arm\\arm-none-eabi\\include\\stdio.h"
 2541              		.file 12 "<built-in>"
ARM GAS  C:\Users\bubble\AppData\Local\Temp\cc51e8AY.s 			page 61

