ARM GAS  C:\Users\bubble\AppData\Local\Temp\ccRMWmKE.s 			page 1


   1              		.cpu cortex-m4
   2              		.arch armv7e-m
   3              		.fpu fpv4-sp-d16
   4              		.eabi_attribute 27, 1
   5              		.eabi_attribute 28, 1
   6              		.eabi_attribute 20, 1
   7              		.eabi_attribute 21, 1
   8              		.eabi_attribute 23, 3
   9              		.eabi_attribute 24, 1
  10              		.eabi_attribute 25, 1
  11              		.eabi_attribute 26, 1
  12              		.eabi_attribute 30, 1
  13              		.eabi_attribute 34, 1
  14              		.eabi_attribute 18, 4
  15              		.file	"OLED.c"
  16              		.text
  17              	.Ltext0:
  18              		.cfi_sections	.debug_frame
  19              		.section	.text.OLED_GPIO_Init,"ax",%progbits
  20              		.align	1
  21              		.global	OLED_GPIO_Init
  22              		.syntax unified
  23              		.thumb
  24              		.thumb_func
  26              	OLED_GPIO_Init:
  27              	.LFB242:
  28              		.file 1 "User_BSP/OLED.c"
   1:User_BSP/OLED.c **** 
   2:User_BSP/OLED.c **** /***************************************************************************************
   3:User_BSP/OLED.c ****  * жң¬зЁӢеәҸз”ұжұҹеҚҸз§‘жҠҖеҲӣе»әе№¶е…Қиҙ№ејҖжәҗе…ұдә«
   4:User_BSP/OLED.c ****  * дҪ еҸҜд»Ҙд»»ж„ҸжҹҘзңӢгҖҒдҪҝз”Ёе’Ңдҝ®ж”№пјҢе№¶еә”з”ЁеҲ°иҮӘе·ұзҡ„йЎ№зӣ®д№Ӣдёӯ
   5:User_BSP/OLED.c ****  * зЁӢеәҸзүҲжқғеҪ’жұҹеҚҸз§‘жҠҖжүҖжңүпјҢд»»дҪ•дәәжҲ–з»„з»ҮдёҚеҫ—е°Ҷе…¶жҚ®дёәе·ұжңү
   6:User_BSP/OLED.c ****  *
   7:User_BSP/OLED.c ****  * зЁӢеәҸеҗҚз§°пјҡ				0.96еҜёOLEDжҳҫзӨәеұҸй©ұеҠЁзЁӢеәҸпјҲ4й’Ҳи„ҡI2CжҺҘеҸЈпјү
   8:User_BSP/OLED.c ****  * зЁӢеәҸеҲӣе»әж—¶й—ҙпјҡ			2023.10.24
   9:User_BSP/OLED.c ****  * еҪ“еүҚзЁӢеәҸзүҲжң¬пјҡ			V1.1
  10:User_BSP/OLED.c ****  * еҪ“еүҚзүҲжң¬еҸ‘еёғж—¶й—ҙпјҡ		2023.12.8
  11:User_BSP/OLED.c ****  *
  12:User_BSP/OLED.c ****  * жұҹеҚҸз§‘жҠҖе®ҳж–№зҪ‘з«ҷпјҡ		jiangxiekeji.com
  13:User_BSP/OLED.c ****  * жұҹеҚҸз§‘жҠҖе®ҳж–№ж·ҳе®қеә—пјҡ	jiangxiekeji.taobao.com
  14:User_BSP/OLED.c ****  * зЁӢеәҸд»Ӣз»ҚеҸҠжӣҙж–°еҠЁжҖҒпјҡ	jiangxiekeji.com/tutorial/oled.html
  15:User_BSP/OLED.c ****  *
  16:User_BSP/OLED.c ****  * еҰӮжһңдҪ еҸ‘зҺ°зЁӢеәҸдёӯзҡ„жјҸжҙһжҲ–иҖ…з¬”иҜҜпјҢеҸҜйҖҡиҝҮйӮ®д»¶еҗ‘жҲ‘д»¬еҸҚйҰҲпјҡfeedback@jiangx
  17:User_BSP/OLED.c ****  * еҸ‘йҖҒйӮ®д»¶д№ӢеүҚпјҢдҪ еҸҜд»Ҙе…ҲеҲ°жӣҙж–°еҠЁжҖҒйЎөйқўжҹҘзңӢжңҖж–°зЁӢеәҸпјҢеҰӮжһңжӯӨй—®йўҳе·Із»Ҹ
  18:User_BSP/OLED.c ****  ***************************************************************************************
  19:User_BSP/OLED.c ****  */
  20:User_BSP/OLED.c **** 
  21:User_BSP/OLED.c **** /*
  22:User_BSP/OLED.c ****  * жң¬зЁӢеәҸз”ұzerunsдәҢж¬Ўдҝ®ж”№
  23:User_BSP/OLED.c ****  * дҝ®ж”№еҶ…е®№пјҡ	д»Һж ҮеҮҶеә“зүҲж”№жҲҗHALеә“зүҲпјҢеўһеҠ ж”ҜжҢҒзЎ¬д»¶I2CпјҢеҸҜйҖҡиҝҮдҝ®ж”№е®Ҹе®ҡд№
  24:User_BSP/OLED.c ****  * дҝ®ж”№ж—Ҙжңҹпјҡ	2024.3.16
  25:User_BSP/OLED.c ****  * еҚҡе®ўпјҡ		https://blog.zeruns.tech
  26:User_BSP/OLED.c ****  * Bз«ҷдё»йЎөпјҡ	https://space.bilibili.com/8320520
  27:User_BSP/OLED.c **** */
  28:User_BSP/OLED.c **** 
  29:User_BSP/OLED.c **** #include "main.h"
  30:User_BSP/OLED.c **** #include "OLED.h"
ARM GAS  C:\Users\bubble\AppData\Local\Temp\ccRMWmKE.s 			page 2


  31:User_BSP/OLED.c **** #include <string.h>
  32:User_BSP/OLED.c **** #include <math.h>
  33:User_BSP/OLED.c **** #include <stdio.h>
  34:User_BSP/OLED.c **** #include <stdarg.h>
  35:User_BSP/OLED.c **** 
  36:User_BSP/OLED.c **** // еҰӮжһңз”ЁеҲ°дёӯж–ҮпјҢзј–иҜ‘еҷЁйҷ„еҠ йҖүйЎ№йңҖиҰҒеҠ  --no-multibyte-chars  (з”ЁAC6зј–иҜ‘еҷЁзҡ„дёҚ
  37:User_BSP/OLED.c **** 
  38:User_BSP/OLED.c **** /*
  39:User_BSP/OLED.c **** йҖүжӢ©OLEDй©ұеҠЁж–№ејҸпјҢй»ҳи®ӨдҪҝз”ЁзЎ¬д»¶I2CгҖӮеҰӮжһңиҰҒз”ЁиҪҜд»¶I2Cе°ұе°ҶзЎ¬д»¶I2CйӮЈиЎҢзҡ„е®Ҹе®
  40:User_BSP/OLED.c **** дёҚиғҪеҗҢж—¶дёӨдёӘйғҪеҗҢж—¶еҸ–ж¶ҲжіЁйҮҠпјҒ
  41:User_BSP/OLED.c **** еңЁstm32cubemxдёӯеҲқе§ӢеҢ–ж—¶йңҖиҰҒе°ҶSCLе’ҢSDAеј•и„ҡзҡ„"user lable"еҲҶеҲ«и®ҫзҪ®дёәI2C3_SCLе’ҢI2C3_
  42:User_BSP/OLED.c **** */
  43:User_BSP/OLED.c **** #define OLED_USE_HW_I2C	// зЎ¬д»¶I2C
  44:User_BSP/OLED.c **** //#define OLED_USE_SW_I2C	// иҪҜд»¶I2C
  45:User_BSP/OLED.c **** 
  46:User_BSP/OLED.c **** /*еј•и„ҡе®ҡд№үпјҢеҸҜеңЁжӯӨеӨ„дҝ®ж”№I2CйҖҡдҝЎеј•и„ҡ*/
  47:User_BSP/OLED.c **** /*#define OLED_SCL            SCL // SCL
  48:User_BSP/OLED.c **** #define OLED_SDA            SDA // SDA
  49:User_BSP/OLED.c **** #define OLED_SCL_GPIO_Port  SCL_Port
  50:User_BSP/OLED.c **** #define OLED_SDA_GPIO_Port  SDA_Port*/
  51:User_BSP/OLED.c **** 
  52:User_BSP/OLED.c **** /*STM32G431иҠҜзүҮзҡ„зЎ¬д»¶I2C3: PB6 -- SCL; PB7 -- SDA */
  53:User_BSP/OLED.c **** 
  54:User_BSP/OLED.c **** #ifdef OLED_USE_HW_I2C
  55:User_BSP/OLED.c **** /*I2CжҺҘеҸЈпјҢе®ҡд№үOLEDеұҸдҪҝз”Ёе“ӘдёӘI2CжҺҘеҸЈ*/
  56:User_BSP/OLED.c **** #define OLED_I2C            hi2c1
  57:User_BSP/OLED.c **** extern  I2C_HandleTypeDef   hi2c1;	//HALеә“дҪҝз”ЁпјҢжҢҮе®ҡзЎ¬д»¶IICжҺҘеҸЈ
  58:User_BSP/OLED.c **** #endif
  59:User_BSP/OLED.c **** 
  60:User_BSP/OLED.c **** /*OLEDд»Һжңәең°еқҖ*/
  61:User_BSP/OLED.c **** #define OLED_ADDRESS 0x3C << 1	// 0x3CжҳҜOLEDзҡ„7дҪҚең°еқҖпјҢе·Ұз§»1дҪҚжңҖеҗҺдҪҚеҒҡиҜ»еҶҷдҪҚеҸҳжҲҗ0
  62:User_BSP/OLED.c **** 
  63:User_BSP/OLED.c **** /*I2Cи¶…ж—¶ж—¶й—ҙ*/
  64:User_BSP/OLED.c **** #define OLED_I2C_TIMEOUT 10
  65:User_BSP/OLED.c **** /*иҪҜд»¶I2Cз”Ёзҡ„е»¶ж—¶ж—¶й—ҙпјҢдёӢйқўж•°еҖјдёә170MHzдё»йў‘иҰҒе»¶ж—¶зҡ„еҖјпјҢеҰӮжһңдҪ зҡ„дё»йў‘дёҚд
  66:User_BSP/OLED.c **** #define Delay_time 0
  67:User_BSP/OLED.c **** 
  68:User_BSP/OLED.c **** /**
  69:User_BSP/OLED.c ****  * ж•°жҚ®еӯҳеӮЁж јејҸпјҡ
  70:User_BSP/OLED.c ****  * зәөеҗ‘8зӮ№пјҢй«ҳдҪҚеңЁдёӢпјҢе…Ҳд»Һе·ҰеҲ°еҸіпјҢеҶҚд»ҺдёҠеҲ°дёӢ
  71:User_BSP/OLED.c ****  * жҜҸдёҖдёӘBitеҜ№еә”дёҖдёӘеғҸзҙ зӮ№
  72:User_BSP/OLED.c ****  *
  73:User_BSP/OLED.c ****  *      B0 B0                  B0 B0
  74:User_BSP/OLED.c ****  *      B1 B1                  B1 B1
  75:User_BSP/OLED.c ****  *      B2 B2                  B2 B2
  76:User_BSP/OLED.c ****  *      B3 B3  ------------->  B3 B3 --
  77:User_BSP/OLED.c ****  *      B4 B4                  B4 B4  |
  78:User_BSP/OLED.c ****  *      B5 B5                  B5 B5  |
  79:User_BSP/OLED.c ****  *      B6 B6                  B6 B6  |
  80:User_BSP/OLED.c ****  *      B7 B7                  B7 B7  |
  81:User_BSP/OLED.c ****  *                                    |
  82:User_BSP/OLED.c ****  *  -----------------------------------
  83:User_BSP/OLED.c ****  *  |
  84:User_BSP/OLED.c ****  *  |   B0 B0                  B0 B0
  85:User_BSP/OLED.c ****  *  |   B1 B1                  B1 B1
  86:User_BSP/OLED.c ****  *  |   B2 B2                  B2 B2
  87:User_BSP/OLED.c ****  *  --> B3 B3  ------------->  B3 B3
ARM GAS  C:\Users\bubble\AppData\Local\Temp\ccRMWmKE.s 			page 3


  88:User_BSP/OLED.c ****  *      B4 B4                  B4 B4
  89:User_BSP/OLED.c ****  *      B5 B5                  B5 B5
  90:User_BSP/OLED.c ****  *      B6 B6                  B6 B6
  91:User_BSP/OLED.c ****  *      B7 B7                  B7 B7
  92:User_BSP/OLED.c ****  *
  93:User_BSP/OLED.c ****  * еқҗж ҮиҪҙе®ҡд№үпјҡ
  94:User_BSP/OLED.c ****  * е·ҰдёҠи§’дёә(0, 0)зӮ№
  95:User_BSP/OLED.c ****  * жЁӘеҗ‘еҗ‘еҸідёәXиҪҙпјҢеҸ–еҖјиҢғеӣҙпјҡ0~127
  96:User_BSP/OLED.c ****  * зәөеҗ‘еҗ‘дёӢдёәYиҪҙпјҢеҸ–еҖјиҢғеӣҙпјҡ0~63
  97:User_BSP/OLED.c ****  *
  98:User_BSP/OLED.c ****  *       0             XиҪҙ           127
  99:User_BSP/OLED.c ****  *      .------------------------------->
 100:User_BSP/OLED.c ****  *    0 |
 101:User_BSP/OLED.c ****  *      |
 102:User_BSP/OLED.c ****  *      |
 103:User_BSP/OLED.c ****  *      |
 104:User_BSP/OLED.c ****  *  YиҪҙ |
 105:User_BSP/OLED.c ****  *      |
 106:User_BSP/OLED.c ****  *      |
 107:User_BSP/OLED.c ****  *      |
 108:User_BSP/OLED.c ****  *   63 |
 109:User_BSP/OLED.c ****  *      v
 110:User_BSP/OLED.c ****  *
 111:User_BSP/OLED.c ****  */
 112:User_BSP/OLED.c **** 
 113:User_BSP/OLED.c **** /*е…ЁеұҖеҸҳйҮҸ*********************/
 114:User_BSP/OLED.c **** /**
 115:User_BSP/OLED.c ****  * OLEDжҳҫеӯҳж•°з»„
 116:User_BSP/OLED.c ****  * жүҖжңүзҡ„жҳҫзӨәеҮҪж•°пјҢйғҪеҸӘжҳҜеҜ№жӯӨжҳҫеӯҳж•°з»„иҝӣиЎҢиҜ»еҶҷ
 117:User_BSP/OLED.c ****  * йҡҸеҗҺи°ғз”ЁOLED_UpdateеҮҪж•°жҲ–OLED_UpdateAreaеҮҪж•°
 118:User_BSP/OLED.c ****  * жүҚдјҡе°Ҷжҳҫеӯҳж•°з»„зҡ„ж•°жҚ®еҸ‘йҖҒеҲ°OLEDзЎ¬д»¶пјҢиҝӣиЎҢжҳҫзӨә
 119:User_BSP/OLED.c ****  */
 120:User_BSP/OLED.c **** uint8_t OLED_DisplayBuf[8][128];
 121:User_BSP/OLED.c **** /*********************е…ЁеұҖеҸҳйҮҸ*/
 122:User_BSP/OLED.c **** 
 123:User_BSP/OLED.c **** #ifdef OLED_USE_SW_I2C
 124:User_BSP/OLED.c **** /**
 125:User_BSP/OLED.c ****  * @brief еҗ‘ OLED_SCL еҶҷй«ҳдҪҺз”өе№і
 126:User_BSP/OLED.c ****  * ж №жҚ® BitValue зҡ„еҖјпјҢе°Ҷ OLED_SCL зҪ®й«ҳз”өе№іжҲ–дҪҺз”өе№ігҖӮ
 127:User_BSP/OLED.c ****  * @param BitValue дҪҚеҖјпјҢ0 жҲ– 1
 128:User_BSP/OLED.c ****  */
 129:User_BSP/OLED.c **** void OLED_W_SCL(uint8_t BitValue)
 130:User_BSP/OLED.c **** {
 131:User_BSP/OLED.c **** 	/*ж №жҚ®BitValueзҡ„еҖјпјҢе°ҶSCLзҪ®й«ҳз”өе№іжҲ–иҖ…дҪҺз”өе№і*/
 132:User_BSP/OLED.c **** 	HAL_GPIO_WritePin(OLED_SCL_GPIO_Port, OLED_SCL, (GPIO_PinState)BitValue);
 133:User_BSP/OLED.c **** 	/*еҰӮжһңеҚ•зүҮжңәйҖҹеәҰиҝҮеҝ«пјҢеҸҜеңЁжӯӨж·»еҠ йҖӮйҮҸе»¶ж—¶пјҢд»ҘйҒҝе…Қи¶…еҮәI2CйҖҡдҝЎзҡ„жңҖеӨ§йҖҹ
 134:User_BSP/OLED.c ****     for (volatile uint16_t i = 0; i < Delay_time; i++){
 135:User_BSP/OLED.c ****         //for (uint16_t j = 0; j < 10; j++);
 136:User_BSP/OLED.c ****     }
 137:User_BSP/OLED.c **** }
 138:User_BSP/OLED.c **** 
 139:User_BSP/OLED.c **** /**
 140:User_BSP/OLED.c ****   * @brief OLEDеҶҷSDAй«ҳдҪҺз”өе№і
 141:User_BSP/OLED.c ****   * @param иҰҒеҶҷе…ҘSDAзҡ„з”өе№іеҖјпјҢиҢғеӣҙпјҡ0/1
 142:User_BSP/OLED.c ****   * @return ж— 
 143:User_BSP/OLED.c ****   * @note еҪ“дёҠеұӮеҮҪж•°йңҖиҰҒеҶҷSDAж—¶пјҢжӯӨеҮҪж•°дјҡиў«и°ғз”Ё
 144:User_BSP/OLED.c ****   *           з”ЁжҲ·йңҖиҰҒж №жҚ®еҸӮж•°дј е…Ҙзҡ„еҖјпјҢе°ҶSDAзҪ®дёәй«ҳз”өе№іжҲ–иҖ…дҪҺз”өе№і
ARM GAS  C:\Users\bubble\AppData\Local\Temp\ccRMWmKE.s 			page 4


 145:User_BSP/OLED.c ****   *           еҪ“еҸӮж•°дј е…Ҙ0ж—¶пјҢзҪ®SDAдёәдҪҺз”өе№іпјҢеҪ“еҸӮж•°дј е…Ҙ1ж—¶пјҢзҪ®SDAдёәй«ҳз”өе№і
 146:User_BSP/OLED.c ****   */
 147:User_BSP/OLED.c **** void OLED_W_SDA(uint8_t BitValue)
 148:User_BSP/OLED.c **** {
 149:User_BSP/OLED.c **** 	/*ж №жҚ®BitValueзҡ„еҖјпјҢе°ҶSDAзҪ®й«ҳз”өе№іжҲ–иҖ…дҪҺз”өе№і*/
 150:User_BSP/OLED.c **** 	HAL_GPIO_WritePin(OLED_SDA_GPIO_Port, OLED_SDA, (GPIO_PinState)BitValue);
 151:User_BSP/OLED.c **** 	/*еҰӮжһңеҚ•зүҮжңәйҖҹеәҰиҝҮеҝ«пјҢеҸҜеңЁжӯӨж·»еҠ йҖӮйҮҸе»¶ж—¶пјҢд»ҘйҒҝе…Қи¶…еҮәI2CйҖҡдҝЎзҡ„жңҖеӨ§йҖҹ
 152:User_BSP/OLED.c **** 	for (volatile uint16_t i = 0; i < Delay_time; i++){
 153:User_BSP/OLED.c ****         //for (uint16_t j = 0; j < 10; j++);
 154:User_BSP/OLED.c ****     }
 155:User_BSP/OLED.c **** }
 156:User_BSP/OLED.c **** #endif
 157:User_BSP/OLED.c **** 
 158:User_BSP/OLED.c **** /**
 159:User_BSP/OLED.c ****  * @brief OLEDеј•и„ҡеҲқе§ӢеҢ–
 160:User_BSP/OLED.c ****  * @param  ж— 
 161:User_BSP/OLED.c ****  * @retval ж— 
 162:User_BSP/OLED.c ****  * @note еҪ“дёҠеұӮеҮҪж•°йңҖиҰҒеҲқе§ӢеҢ–ж—¶пјҢжӯӨеҮҪж•°дјҡиў«и°ғз”Ё,
 163:User_BSP/OLED.c ****  *       з”ЁжҲ·йңҖиҰҒе°ҶSCLе’ҢSDAеј•и„ҡеҲқе§ӢеҢ–дёәејҖжјҸжЁЎејҸпјҢе№¶йҮҠж”ҫеј•и„ҡ
 164:User_BSP/OLED.c ****  */
 165:User_BSP/OLED.c **** void OLED_GPIO_Init(void)
 166:User_BSP/OLED.c **** {
  29              		.loc 1 166 1 view -0
  30              		.cfi_startproc
  31              		@ args = 0, pretend = 0, frame = 0
  32              		@ frame_needed = 0, uses_anonymous_args = 0
  33              		@ link register save eliminated.
 167:User_BSP/OLED.c ****     uint32_t i, j;
  34              		.loc 1 167 5 view .LVU1
 168:User_BSP/OLED.c **** 
 169:User_BSP/OLED.c ****     /*еңЁеҲқе§ӢеҢ–еүҚпјҢеҠ е…ҘйҖӮйҮҸе»¶ж—¶пјҢеҫ…OLEDдҫӣз”өзЁіе®ҡ*/
 170:User_BSP/OLED.c ****     for (i = 0; i < 1000; i++) {
  35              		.loc 1 170 5 view .LVU2
  36              	.LVL0:
  37              		.loc 1 170 12 is_stmt 0 view .LVU3
  38 0000 0022     		movs	r2, #0
  39              		.loc 1 170 5 view .LVU4
  40 0002 04E0     		b	.L2
  41              	.LVL1:
  42              	.L3:
 171:User_BSP/OLED.c ****         for (j = 0; j < 1000; j++)
 172:User_BSP/OLED.c ****             ;
  43              		.loc 1 172 13 is_stmt 1 discriminator 3 view .LVU5
 171:User_BSP/OLED.c ****         for (j = 0; j < 1000; j++)
  44              		.loc 1 171 31 discriminator 3 view .LVU6
 171:User_BSP/OLED.c ****         for (j = 0; j < 1000; j++)
  45              		.loc 1 171 32 is_stmt 0 discriminator 3 view .LVU7
  46 0004 0133     		adds	r3, r3, #1
  47              	.LVL2:
  48              	.L4:
 171:User_BSP/OLED.c ****         for (j = 0; j < 1000; j++)
  49              		.loc 1 171 21 is_stmt 1 discriminator 1 view .LVU8
 171:User_BSP/OLED.c ****         for (j = 0; j < 1000; j++)
  50              		.loc 1 171 9 is_stmt 0 discriminator 1 view .LVU9
  51 0006 B3F57A7F 		cmp	r3, #1000
  52 000a FBD3     		bcc	.L3
 170:User_BSP/OLED.c ****         for (j = 0; j < 1000; j++)
ARM GAS  C:\Users\bubble\AppData\Local\Temp\ccRMWmKE.s 			page 5


  53              		.loc 1 170 27 is_stmt 1 discriminator 2 view .LVU10
 170:User_BSP/OLED.c ****         for (j = 0; j < 1000; j++)
  54              		.loc 1 170 28 is_stmt 0 discriminator 2 view .LVU11
  55 000c 0132     		adds	r2, r2, #1
  56              	.LVL3:
  57              	.L2:
 170:User_BSP/OLED.c ****         for (j = 0; j < 1000; j++)
  58              		.loc 1 170 17 is_stmt 1 discriminator 1 view .LVU12
 170:User_BSP/OLED.c ****         for (j = 0; j < 1000; j++)
  59              		.loc 1 170 5 is_stmt 0 discriminator 1 view .LVU13
  60 000e B2F57A7F 		cmp	r2, #1000
  61 0012 01D2     		bcs	.L6
 171:User_BSP/OLED.c ****         for (j = 0; j < 1000; j++)
  62              		.loc 1 171 16 view .LVU14
  63 0014 0023     		movs	r3, #0
  64 0016 F6E7     		b	.L4
  65              	.L6:
 173:User_BSP/OLED.c ****     }
 174:User_BSP/OLED.c **** #ifdef OLED_USE_SW_I2C
 175:User_BSP/OLED.c **** //    __HAL_RCC_GPIOC_CLK_ENABLE();		// дҪҝиғҪGPIOCж—¶й’ҹ
 176:User_BSP/OLED.c **** //    __HAL_RCC_GPIOA_CLK_ENABLE();       // дҪҝиғҪGPIOAж—¶й’ҹ
 177:User_BSP/OLED.c **** //	GPIO_InitTypeDef GPIO_InitStruct = {0};              // е®ҡд№үз»“жһ„дҪ“й…ҚзҪ®GPIO
 178:User_BSP/OLED.c **** // 	GPIO_InitStruct.Mode = GPIO_MODE_OUTPUT_OD;	        // и®ҫзҪ®GPIOжЁЎејҸдёәејҖжјҸиҫ“еҮәжЁЎејҸ
 179:User_BSP/OLED.c **** //    GPIO_InitStruct.Pull = GPIO_PULLUP;                 // еҶ…йғЁдёҠжӢүз”өйҳ»
 180:User_BSP/OLED.c **** //	GPIO_InitStruct.Speed = GPIO_SPEED_FREQ_VERY_HIGH;  // и®ҫзҪ®GPIOйҖҹеәҰдёәй«ҳйҖҹ
 181:User_BSP/OLED.c **** //	GPIO_InitStruct.Pin = I2C3_SDA_Pin;                 // и®ҫзҪ®еј•и„ҡ
 182:User_BSP/OLED.c **** // 	HAL_GPIO_Init(I2C3_SDA_GPIO_Port, &GPIO_InitStruct);// еҲқе§ӢеҢ–GPIO
 183:User_BSP/OLED.c **** 
 184:User_BSP/OLED.c **** //    GPIO_InitStruct.Pin = I2C3_SCL_Pin;
 185:User_BSP/OLED.c **** //    HAL_GPIO_Init(I2C3_SCL_GPIO_Port, &GPIO_InitStruct);
 186:User_BSP/OLED.c **** 
 187:User_BSP/OLED.c **** 	/*йҮҠж”ҫSCLе’ҢSDA*/
 188:User_BSP/OLED.c **** 	OLED_W_SCL(1);
 189:User_BSP/OLED.c **** 	OLED_W_SDA(1);
 190:User_BSP/OLED.c **** #endif
 191:User_BSP/OLED.c **** }
  66              		.loc 1 191 1 view .LVU15
  67 0018 7047     		bx	lr
  68              		.cfi_endproc
  69              	.LFE242:
  71              		.section	.text.OLED_I2C_Start,"ax",%progbits
  72              		.align	1
  73              		.global	OLED_I2C_Start
  74              		.syntax unified
  75              		.thumb
  76              		.thumb_func
  78              	OLED_I2C_Start:
  79              	.LFB243:
 192:User_BSP/OLED.c **** 
 193:User_BSP/OLED.c **** // https://blog.zeruns.tech
 194:User_BSP/OLED.c **** 
 195:User_BSP/OLED.c **** /*йҖҡдҝЎеҚҸи®®*********************/
 196:User_BSP/OLED.c **** 
 197:User_BSP/OLED.c **** /**
 198:User_BSP/OLED.c ****  * @brief I2Cиө·е§Ӣ
 199:User_BSP/OLED.c ****  * @param  ж— 
 200:User_BSP/OLED.c ****  * @return ж— 
ARM GAS  C:\Users\bubble\AppData\Local\Temp\ccRMWmKE.s 			page 6


 201:User_BSP/OLED.c ****  */
 202:User_BSP/OLED.c **** void OLED_I2C_Start(void)
 203:User_BSP/OLED.c **** {
  80              		.loc 1 203 1 is_stmt 1 view -0
  81              		.cfi_startproc
  82              		@ args = 0, pretend = 0, frame = 0
  83              		@ frame_needed = 0, uses_anonymous_args = 0
  84              		@ link register save eliminated.
 204:User_BSP/OLED.c **** #ifdef OLED_USE_SW_I2C
 205:User_BSP/OLED.c **** 	OLED_W_SDA(1);		//йҮҠж”ҫSDAпјҢзЎ®дҝқSDAдёәй«ҳз”өе№і
 206:User_BSP/OLED.c **** 	OLED_W_SCL(1);		//йҮҠж”ҫSCLпјҢзЎ®дҝқSCLдёәй«ҳз”өе№і
 207:User_BSP/OLED.c **** 	OLED_W_SDA(0);		//еңЁSCLй«ҳз”өе№іжңҹй—ҙпјҢжӢүдҪҺSDAпјҢдә§з”ҹиө·е§ӢдҝЎеҸ·
 208:User_BSP/OLED.c **** 	OLED_W_SCL(0);		//иө·е§ӢеҗҺжҠҠSCLд№ҹжӢүдҪҺпјҢеҚідёәдәҶеҚ з”ЁжҖ»зәҝпјҢд№ҹдёәдәҶж–№дҫҝжҖ»зәҝж—¶еәҸзҡ
 209:User_BSP/OLED.c **** #endif
 210:User_BSP/OLED.c **** }
  85              		.loc 1 210 1 view .LVU17
  86 0000 7047     		bx	lr
  87              		.cfi_endproc
  88              	.LFE243:
  90              		.section	.text.OLED_I2C_Stop,"ax",%progbits
  91              		.align	1
  92              		.global	OLED_I2C_Stop
  93              		.syntax unified
  94              		.thumb
  95              		.thumb_func
  97              	OLED_I2C_Stop:
  98              	.LFB244:
 211:User_BSP/OLED.c **** 
 212:User_BSP/OLED.c **** /**
 213:User_BSP/OLED.c ****  * @brief I2Cз»Ҳжӯў
 214:User_BSP/OLED.c ****  * @param  ж— 
 215:User_BSP/OLED.c ****  * @return ж— 
 216:User_BSP/OLED.c ****  */
 217:User_BSP/OLED.c **** void OLED_I2C_Stop(void)
 218:User_BSP/OLED.c **** {
  99              		.loc 1 218 1 view -0
 100              		.cfi_startproc
 101              		@ args = 0, pretend = 0, frame = 0
 102              		@ frame_needed = 0, uses_anonymous_args = 0
 103              		@ link register save eliminated.
 219:User_BSP/OLED.c **** #ifdef OLED_USE_SW_I2C
 220:User_BSP/OLED.c **** 	OLED_W_SDA(0);		//жӢүдҪҺSDAпјҢзЎ®дҝқSDAдёәдҪҺз”өе№і
 221:User_BSP/OLED.c **** 	OLED_W_SCL(1);		//йҮҠж”ҫSCLпјҢдҪҝSCLе‘ҲзҺ°й«ҳз”өе№і
 222:User_BSP/OLED.c **** 	OLED_W_SDA(1);		//еңЁSCLй«ҳз”өе№іжңҹй—ҙпјҢйҮҠж”ҫSDAпјҢдә§з”ҹз»ҲжӯўдҝЎеҸ·
 223:User_BSP/OLED.c **** #endif
 224:User_BSP/OLED.c **** }
 104              		.loc 1 224 1 view .LVU19
 105 0000 7047     		bx	lr
 106              		.cfi_endproc
 107              	.LFE244:
 109              		.section	.text.OLED_I2C_SendByte,"ax",%progbits
 110              		.align	1
 111              		.global	OLED_I2C_SendByte
 112              		.syntax unified
 113              		.thumb
 114              		.thumb_func
 116              	OLED_I2C_SendByte:
ARM GAS  C:\Users\bubble\AppData\Local\Temp\ccRMWmKE.s 			page 7


 117              	.LVL4:
 118              	.LFB245:
 225:User_BSP/OLED.c **** 
 226:User_BSP/OLED.c **** /**
 227:User_BSP/OLED.c ****  * @brief I2CеҸ‘йҖҒдёҖдёӘеӯ—иҠӮ
 228:User_BSP/OLED.c ****  * @param Byte иҰҒеҸ‘йҖҒзҡ„дёҖдёӘеӯ—иҠӮж•°жҚ®пјҢиҢғеӣҙпјҡ0x00~0xFF
 229:User_BSP/OLED.c ****  * @return ж— 
 230:User_BSP/OLED.c ****  */
 231:User_BSP/OLED.c **** void OLED_I2C_SendByte(uint8_t Byte)
 232:User_BSP/OLED.c **** {
 119              		.loc 1 232 1 view -0
 120              		.cfi_startproc
 121              		@ args = 0, pretend = 0, frame = 0
 122              		@ frame_needed = 0, uses_anonymous_args = 0
 123              		@ link register save eliminated.
 233:User_BSP/OLED.c **** #ifdef OLED_USE_SW_I2C
 234:User_BSP/OLED.c **** 	uint8_t i;
 235:User_BSP/OLED.c **** 	/*еҫӘзҺҜ8ж¬ЎпјҢдё»жңәдҫқж¬ЎеҸ‘йҖҒж•°жҚ®зҡ„жҜҸдёҖдҪҚ*/
 236:User_BSP/OLED.c **** 	for (i = 0; i < 8; i++)
 237:User_BSP/OLED.c **** 	{
 238:User_BSP/OLED.c **** 		/*дҪҝз”ЁжҺ©з Ғзҡ„ж–№ејҸеҸ–еҮәByteзҡ„жҢҮе®ҡдёҖдҪҚж•°жҚ®е№¶еҶҷе…ҘеҲ°SDAзәҝ*/
 239:User_BSP/OLED.c **** 		/*дёӨдёӘ!зҡ„дҪңз”ЁжҳҜпјҢи®©жүҖжңүйқһйӣ¶зҡ„еҖјеҸҳдёә1*/
 240:User_BSP/OLED.c **** 		OLED_W_SDA(!!(Byte & (0x80 >> i)));
 241:User_BSP/OLED.c **** 		OLED_W_SCL(1);	//йҮҠж”ҫSCLпјҢд»ҺжңәеңЁSCLй«ҳз”өе№іжңҹй—ҙиҜ»еҸ–SDA
 242:User_BSP/OLED.c **** 		OLED_W_SCL(0);	//жӢүдҪҺSCLпјҢдё»жңәејҖе§ӢеҸ‘йҖҒдёӢдёҖдҪҚж•°жҚ®
 243:User_BSP/OLED.c **** 	}
 244:User_BSP/OLED.c **** 	OLED_W_SCL(1);		//йўқеӨ–зҡ„дёҖдёӘж—¶й’ҹпјҢдёҚеӨ„зҗҶеә”зӯ”дҝЎеҸ·
 245:User_BSP/OLED.c **** 	OLED_W_SCL(0);
 246:User_BSP/OLED.c **** #endif
 247:User_BSP/OLED.c **** }
 124              		.loc 1 247 1 view .LVU21
 125 0000 7047     		bx	lr
 126              		.cfi_endproc
 127              	.LFE245:
 129              		.section	.text.OLED_WriteCommand,"ax",%progbits
 130              		.align	1
 131              		.global	OLED_WriteCommand
 132              		.syntax unified
 133              		.thumb
 134              		.thumb_func
 136              	OLED_WriteCommand:
 137              	.LVL5:
 138              	.LFB246:
 248:User_BSP/OLED.c **** 
 249:User_BSP/OLED.c **** /**
 250:User_BSP/OLED.c ****  * @brief OLEDеҶҷе‘Ҫд»Ө
 251:User_BSP/OLED.c ****  * @param Command иҰҒеҶҷе…Ҙзҡ„е‘Ҫд»ӨеҖјпјҢиҢғеӣҙпјҡ0x00~0xFF
 252:User_BSP/OLED.c ****  * @return ж— 
 253:User_BSP/OLED.c ****  */
 254:User_BSP/OLED.c **** void OLED_WriteCommand(uint8_t Command)
 255:User_BSP/OLED.c **** {
 139              		.loc 1 255 1 view -0
 140              		.cfi_startproc
 141              		@ args = 0, pretend = 0, frame = 8
 142              		@ frame_needed = 0, uses_anonymous_args = 0
 143              		.loc 1 255 1 is_stmt 0 view .LVU23
 144 0000 00B5     		push	{lr}
ARM GAS  C:\Users\bubble\AppData\Local\Temp\ccRMWmKE.s 			page 8


 145              	.LCFI0:
 146              		.cfi_def_cfa_offset 4
 147              		.cfi_offset 14, -4
 148 0002 85B0     		sub	sp, sp, #20
 149              	.LCFI1:
 150              		.cfi_def_cfa_offset 24
 256:User_BSP/OLED.c **** #ifdef OLED_USE_SW_I2C
 257:User_BSP/OLED.c ****     OLED_I2C_Start();           // I2Cиө·е§Ӣ
 258:User_BSP/OLED.c **** 	OLED_I2C_SendByte(0x78);		//еҸ‘йҖҒOLEDзҡ„I2Cд»Һжңәең°еқҖ
 259:User_BSP/OLED.c **** 	OLED_I2C_SendByte(0x00);	//жҺ§еҲ¶еӯ—иҠӮпјҢз»ҷ0x00пјҢиЎЁзӨәеҚіе°ҶеҶҷе‘Ҫд»Ө
 260:User_BSP/OLED.c ****     OLED_I2C_SendByte(Command); // еҶҷе…ҘжҢҮе®ҡзҡ„е‘Ҫд»Ө
 261:User_BSP/OLED.c ****     OLED_I2C_Stop();            // I2Cз»Ҳжӯў
 262:User_BSP/OLED.c **** #elif defined(OLED_USE_HW_I2C)
 263:User_BSP/OLED.c ****     uint8_t TxData[2] = {0x00, Command};
 151              		.loc 1 263 5 is_stmt 1 view .LVU24
 152              		.loc 1 263 13 is_stmt 0 view .LVU25
 153 0004 0023     		movs	r3, #0
 154 0006 8DF80C30 		strb	r3, [sp, #12]
 155 000a 8DF80D00 		strb	r0, [sp, #13]
 264:User_BSP/OLED.c ****     HAL_I2C_Master_Transmit(&OLED_I2C, OLED_ADDRESS, (uint8_t*)TxData, 2, OLED_I2C_TIMEOUT);
 156              		.loc 1 264 5 is_stmt 1 view .LVU26
 157 000e 0A23     		movs	r3, #10
 158 0010 0093     		str	r3, [sp]
 159 0012 0223     		movs	r3, #2
 160 0014 03AA     		add	r2, sp, #12
 161 0016 7821     		movs	r1, #120
 162 0018 0248     		ldr	r0, .L12
 163              	.LVL6:
 164              		.loc 1 264 5 is_stmt 0 view .LVU27
 165 001a FFF7FEFF 		bl	HAL_I2C_Master_Transmit
 166              	.LVL7:
 265:User_BSP/OLED.c **** #endif 
 266:User_BSP/OLED.c **** }
 167              		.loc 1 266 1 view .LVU28
 168 001e 05B0     		add	sp, sp, #20
 169              	.LCFI2:
 170              		.cfi_def_cfa_offset 4
 171              		@ sp needed
 172 0020 5DF804FB 		ldr	pc, [sp], #4
 173              	.L13:
 174              		.align	2
 175              	.L12:
 176 0024 00000000 		.word	hi2c1
 177              		.cfi_endproc
 178              	.LFE246:
 180              		.section	.text.OLED_WriteData,"ax",%progbits
 181              		.align	1
 182              		.global	OLED_WriteData
 183              		.syntax unified
 184              		.thumb
 185              		.thumb_func
 187              	OLED_WriteData:
 188              	.LVL8:
 189              	.LFB247:
 267:User_BSP/OLED.c **** 
 268:User_BSP/OLED.c **** /**
 269:User_BSP/OLED.c ****  * @brief OLEDеҶҷж•°жҚ®
ARM GAS  C:\Users\bubble\AppData\Local\Temp\ccRMWmKE.s 			page 9


 270:User_BSP/OLED.c ****  * @param Data иҰҒеҶҷе…Ҙж•°жҚ®зҡ„иө·е§Ӣең°еқҖ
 271:User_BSP/OLED.c ****  * @param Count иҰҒеҶҷе…Ҙж•°жҚ®зҡ„ж•°йҮҸ
 272:User_BSP/OLED.c ****  * @return ж— 
 273:User_BSP/OLED.c ****  */
 274:User_BSP/OLED.c **** void OLED_WriteData(uint8_t *Data, uint8_t Count)
 275:User_BSP/OLED.c **** {
 190              		.loc 1 275 1 is_stmt 1 view -0
 191              		.cfi_startproc
 192              		@ args = 0, pretend = 0, frame = 0
 193              		@ frame_needed = 1, uses_anonymous_args = 0
 194              		.loc 1 275 1 is_stmt 0 view .LVU30
 195 0000 80B5     		push	{r7, lr}
 196              	.LCFI3:
 197              		.cfi_def_cfa_offset 8
 198              		.cfi_offset 7, -8
 199              		.cfi_offset 14, -4
 200 0002 82B0     		sub	sp, sp, #8
 201              	.LCFI4:
 202              		.cfi_def_cfa_offset 16
 203 0004 02AF     		add	r7, sp, #8
 204              	.LCFI5:
 205              		.cfi_def_cfa 7, 8
 276:User_BSP/OLED.c ****     uint8_t i;
 206              		.loc 1 276 5 is_stmt 1 view .LVU31
 277:User_BSP/OLED.c **** #ifdef OLED_USE_SW_I2C
 278:User_BSP/OLED.c ****     OLED_I2C_Start();        // I2Cиө·е§Ӣ
 279:User_BSP/OLED.c **** 	OLED_I2C_SendByte(0x78);		//еҸ‘йҖҒOLEDзҡ„I2Cд»Һжңәең°еқҖ
 280:User_BSP/OLED.c **** 
 281:User_BSP/OLED.c ****     OLED_I2C_SendByte(0x40); // жҺ§еҲ¶еӯ—иҠӮпјҢз»ҷ0x40пјҢиЎЁзӨәеҚіе°ҶеҶҷж•°жҚ®
 282:User_BSP/OLED.c ****     /*еҫӘзҺҜCountж¬ЎпјҢиҝӣиЎҢиҝһз»ӯзҡ„ж•°жҚ®еҶҷе…Ҙ*/
 283:User_BSP/OLED.c ****     for (i = 0; i < Count; i++) {
 284:User_BSP/OLED.c ****         OLED_I2C_SendByte(Data[i]); // дҫқж¬ЎеҸ‘йҖҒDataзҡ„жҜҸдёҖдёӘж•°жҚ®
 285:User_BSP/OLED.c ****     }
 286:User_BSP/OLED.c ****     OLED_I2C_Stop(); // I2Cз»Ҳжӯў
 287:User_BSP/OLED.c **** #elif defined(OLED_USE_HW_I2C)
 288:User_BSP/OLED.c ****     uint8_t TxData[Count + 1]; // еҲҶй…ҚдёҖдёӘж–°зҡ„ж•°з»„пјҢеӨ§е°ҸжҳҜCount + 1
 207              		.loc 1 288 5 view .LVU32
 208              	.LVL9:
 209              		.loc 1 288 13 is_stmt 0 view .LVU33
 210 0006 01F10803 		add	r3, r1, #8
 211 000a 03F4FC73 		and	r3, r3, #504
 212 000e ADEB030D 		sub	sp, sp, r3
 213 0012 02AA     		add	r2, sp, #8
 214              	.LVL10:
 289:User_BSP/OLED.c ****     TxData[0] = 0x40; // иө·е§Ӣеӯ—иҠӮ
 215              		.loc 1 289 5 is_stmt 1 view .LVU34
 216              		.loc 1 289 15 is_stmt 0 view .LVU35
 217 0014 4023     		movs	r3, #64
 218 0016 8DF80830 		strb	r3, [sp, #8]
 290:User_BSP/OLED.c ****     // е°ҶDataжҢҮеҗ‘зҡ„ж•°жҚ®еӨҚеҲ¶еҲ°TxDataж•°з»„зҡ„еү©дҪҷйғЁеҲҶ
 291:User_BSP/OLED.c ****     for (i = 0; i < Count; i++) {
 219              		.loc 1 291 5 is_stmt 1 view .LVU36
 220              	.LVL11:
 221              		.loc 1 291 12 is_stmt 0 view .LVU37
 222 001a 4FF0000C 		mov	ip, #0
 223              		.loc 1 291 5 view .LVU38
 224 001e 07E0     		b	.L15
ARM GAS  C:\Users\bubble\AppData\Local\Temp\ccRMWmKE.s 			page 10


 225              	.LVL12:
 226              	.L16:
 292:User_BSP/OLED.c ****         TxData[i + 1] = Data[i];
 227              		.loc 1 292 9 is_stmt 1 discriminator 3 view .LVU39
 228              		.loc 1 292 18 is_stmt 0 discriminator 3 view .LVU40
 229 0020 0CF1010E 		add	lr, ip, #1
 230              		.loc 1 292 29 discriminator 3 view .LVU41
 231 0024 10F80CC0 		ldrb	ip, [r0, ip]	@ zero_extendqisi2
 232              	.LVL13:
 233              		.loc 1 292 23 discriminator 3 view .LVU42
 234 0028 02F80EC0 		strb	ip, [r2, lr]
 291:User_BSP/OLED.c ****         TxData[i + 1] = Data[i];
 235              		.loc 1 291 28 is_stmt 1 discriminator 3 view .LVU43
 291:User_BSP/OLED.c ****         TxData[i + 1] = Data[i];
 236              		.loc 1 291 29 is_stmt 0 discriminator 3 view .LVU44
 237 002c 5FFA8EFC 		uxtb	ip, lr
 238              	.LVL14:
 239              	.L15:
 291:User_BSP/OLED.c ****         TxData[i + 1] = Data[i];
 240              		.loc 1 291 17 is_stmt 1 discriminator 1 view .LVU45
 291:User_BSP/OLED.c ****         TxData[i + 1] = Data[i];
 241              		.loc 1 291 5 is_stmt 0 discriminator 1 view .LVU46
 242 0030 8C45     		cmp	ip, r1
 243 0032 F5D3     		bcc	.L16
 293:User_BSP/OLED.c ****     }
 294:User_BSP/OLED.c ****     HAL_I2C_Master_Transmit(&OLED_I2C, OLED_ADDRESS, (uint8_t*)TxData, Count + 1, OLED_I2C_TIMEOUT)
 244              		.loc 1 294 5 is_stmt 1 view .LVU47
 245 0034 0A23     		movs	r3, #10
 246 0036 0093     		str	r3, [sp]
 247 0038 4B1C     		adds	r3, r1, #1
 248 003a 7821     		movs	r1, #120
 249              	.LVL15:
 250              		.loc 1 294 5 is_stmt 0 view .LVU48
 251 003c 0248     		ldr	r0, .L18
 252              	.LVL16:
 253              		.loc 1 294 5 view .LVU49
 254 003e FFF7FEFF 		bl	HAL_I2C_Master_Transmit
 255              	.LVL17:
 295:User_BSP/OLED.c **** #endif    
 296:User_BSP/OLED.c **** }
 256              		.loc 1 296 1 view .LVU50
 257 0042 BD46     		mov	sp, r7
 258              	.LCFI6:
 259              		.cfi_def_cfa_register 13
 260              	.LVL18:
 261              		.loc 1 296 1 view .LVU51
 262              		@ sp needed
 263 0044 80BD     		pop	{r7, pc}
 264              	.L19:
 265 0046 00BF     		.align	2
 266              	.L18:
 267 0048 00000000 		.word	hi2c1
 268              		.cfi_endproc
 269              	.LFE247:
 271              		.section	.text.OLED_SetCursor,"ax",%progbits
 272              		.align	1
 273              		.global	OLED_SetCursor
ARM GAS  C:\Users\bubble\AppData\Local\Temp\ccRMWmKE.s 			page 11


 274              		.syntax unified
 275              		.thumb
 276              		.thumb_func
 278              	OLED_SetCursor:
 279              	.LVL19:
 280              	.LFB249:
 297:User_BSP/OLED.c **** 
 298:User_BSP/OLED.c **** /*********************йҖҡдҝЎеҚҸи®®*/
 299:User_BSP/OLED.c **** 
 300:User_BSP/OLED.c **** /*зЎ¬д»¶й…ҚзҪ®*********************/
 301:User_BSP/OLED.c **** 
 302:User_BSP/OLED.c **** /**
 303:User_BSP/OLED.c ****  * @brief OLEDеҲқе§ӢеҢ–
 304:User_BSP/OLED.c ****  * @param ж— 
 305:User_BSP/OLED.c ****  * @return ж— 
 306:User_BSP/OLED.c ****  * @note дҪҝз”ЁеүҚпјҢйңҖиҰҒи°ғз”ЁжӯӨеҲқе§ӢеҢ–еҮҪж•°
 307:User_BSP/OLED.c ****  */
 308:User_BSP/OLED.c **** void OLED_Init(void)
 309:User_BSP/OLED.c **** {
 310:User_BSP/OLED.c ****     OLED_GPIO_Init(); // е…Ҳи°ғз”Ёеә•еұӮзҡ„з«ҜеҸЈеҲқе§ӢеҢ–
 311:User_BSP/OLED.c **** 
 312:User_BSP/OLED.c ****     /*еҶҷе…ҘдёҖзі»еҲ—зҡ„е‘Ҫд»ӨпјҢеҜ№OLEDиҝӣиЎҢеҲқе§ӢеҢ–й…ҚзҪ®*/
 313:User_BSP/OLED.c ****     OLED_WriteCommand(0xAE); // и®ҫзҪ®жҳҫзӨәејҖеҗҜ/е…ій—ӯпјҢ0xAEе…ій—ӯпјҢ0xAFејҖеҗҜ
 314:User_BSP/OLED.c **** 
 315:User_BSP/OLED.c ****     OLED_WriteCommand(0xD5); // и®ҫзҪ®жҳҫзӨәж—¶й’ҹеҲҶйў‘жҜ”/жҢҜиҚЎеҷЁйў‘зҺҮ
 316:User_BSP/OLED.c ****     OLED_WriteCommand(0x80); // 0x00~0xFF
 317:User_BSP/OLED.c **** 
 318:User_BSP/OLED.c ****     OLED_WriteCommand(0xA8); // и®ҫзҪ®еӨҡи·ҜеӨҚз”ЁзҺҮ
 319:User_BSP/OLED.c ****     OLED_WriteCommand(0x3F); // 0x0E~0x3F
 320:User_BSP/OLED.c **** 
 321:User_BSP/OLED.c ****     OLED_WriteCommand(0xD3); // и®ҫзҪ®жҳҫзӨәеҒҸз§»
 322:User_BSP/OLED.c ****     OLED_WriteCommand(0x00); // 0x00~0x7F
 323:User_BSP/OLED.c **** 
 324:User_BSP/OLED.c ****     OLED_WriteCommand(0x40); // и®ҫзҪ®жҳҫзӨәејҖе§ӢиЎҢпјҢ0x40~0x7F
 325:User_BSP/OLED.c **** 
 326:User_BSP/OLED.c ****     OLED_WriteCommand(0xA1); // и®ҫзҪ®е·ҰеҸіж–№еҗ‘пјҢ0xA1жӯЈеёёпјҢ0xA0е·ҰеҸіеҸҚзҪ®
 327:User_BSP/OLED.c **** 
 328:User_BSP/OLED.c ****     OLED_WriteCommand(0xC8); // и®ҫзҪ®дёҠдёӢж–№еҗ‘пјҢ0xC8жӯЈеёёпјҢ0xC0дёҠдёӢеҸҚзҪ®
 329:User_BSP/OLED.c **** 
 330:User_BSP/OLED.c ****     OLED_WriteCommand(0xDA); // и®ҫзҪ®COMеј•и„ҡзЎ¬д»¶й…ҚзҪ®
 331:User_BSP/OLED.c ****     OLED_WriteCommand(0x12);
 332:User_BSP/OLED.c **** 
 333:User_BSP/OLED.c ****     OLED_WriteCommand(0x81); // и®ҫзҪ®еҜ№жҜ”еәҰ
 334:User_BSP/OLED.c ****     OLED_WriteCommand(0xCF); // 0x00~0xFF
 335:User_BSP/OLED.c **** 
 336:User_BSP/OLED.c ****     OLED_WriteCommand(0xD9); // и®ҫзҪ®йў„е……з”өе‘Ёжңҹ
 337:User_BSP/OLED.c ****     OLED_WriteCommand(0xF1);
 338:User_BSP/OLED.c **** 
 339:User_BSP/OLED.c ****     OLED_WriteCommand(0xDB); // и®ҫзҪ®VCOMHеҸ–ж¶ҲйҖүжӢ©зә§еҲ«
 340:User_BSP/OLED.c ****     OLED_WriteCommand(0x30);
 341:User_BSP/OLED.c **** 
 342:User_BSP/OLED.c ****     OLED_WriteCommand(0xA4); // и®ҫзҪ®ж•ҙдёӘжҳҫзӨәжү“ејҖ/е…ій—ӯ
 343:User_BSP/OLED.c **** 
 344:User_BSP/OLED.c ****     OLED_WriteCommand(0xA6); // и®ҫзҪ®жӯЈеёё/еҸҚиүІжҳҫзӨәпјҢ0xA6жӯЈеёёпјҢ0xA7еҸҚиүІ
 345:User_BSP/OLED.c **** 
 346:User_BSP/OLED.c ****     OLED_WriteCommand(0x8D); // и®ҫзҪ®е……з”өжіө
 347:User_BSP/OLED.c ****     OLED_WriteCommand(0x14);
ARM GAS  C:\Users\bubble\AppData\Local\Temp\ccRMWmKE.s 			page 12


 348:User_BSP/OLED.c **** 
 349:User_BSP/OLED.c ****     OLED_WriteCommand(0xAF); // ејҖеҗҜжҳҫзӨә
 350:User_BSP/OLED.c **** 
 351:User_BSP/OLED.c ****     OLED_Clear();  // жё…з©әжҳҫеӯҳж•°з»„
 352:User_BSP/OLED.c ****     OLED_Update(); // жӣҙж–°жҳҫзӨәпјҢжё…еұҸпјҢйҳІжӯўеҲқе§ӢеҢ–еҗҺжңӘжҳҫзӨәеҶ…е®№ж—¶иҠұеұҸ
 353:User_BSP/OLED.c **** }
 354:User_BSP/OLED.c **** 
 355:User_BSP/OLED.c **** /**
 356:User_BSP/OLED.c ****  * @brief OLEDи®ҫзҪ®жҳҫзӨәе…үж ҮдҪҚзҪ®
 357:User_BSP/OLED.c ****  * @param Page жҢҮе®ҡе…үж ҮжүҖеңЁзҡ„йЎөпјҢиҢғеӣҙпјҡ0-7
 358:User_BSP/OLED.c ****  * @param X жҢҮе®ҡе…үж ҮжүҖеңЁзҡ„XиҪҙеқҗж ҮпјҢиҢғеӣҙпјҡ0-127
 359:User_BSP/OLED.c ****  * @return ж— 
 360:User_BSP/OLED.c ****  * @note OLEDй»ҳи®Өзҡ„YиҪҙпјҢеҸӘиғҪ8дёӘBitдёәдёҖз»„еҶҷе…ҘпјҢеҚі1йЎөзӯүдәҺ8дёӘYиҪҙеқҗж Ү
 361:User_BSP/OLED.c ****  */
 362:User_BSP/OLED.c **** void OLED_SetCursor(uint8_t Page, uint8_t X)
 363:User_BSP/OLED.c **** {
 281              		.loc 1 363 1 is_stmt 1 view -0
 282              		.cfi_startproc
 283              		@ args = 0, pretend = 0, frame = 0
 284              		@ frame_needed = 0, uses_anonymous_args = 0
 285              		.loc 1 363 1 is_stmt 0 view .LVU53
 286 0000 10B5     		push	{r4, lr}
 287              	.LCFI7:
 288              		.cfi_def_cfa_offset 8
 289              		.cfi_offset 4, -8
 290              		.cfi_offset 14, -4
 291 0002 0C46     		mov	r4, r1
 364:User_BSP/OLED.c ****     /*еҰӮжһңдҪҝз”ЁжӯӨзЁӢеәҸй©ұеҠЁ1.3еҜёзҡ„OLEDжҳҫзӨәеұҸпјҢеҲҷйңҖиҰҒи§ЈйҷӨжӯӨжіЁйҮҠ*/
 365:User_BSP/OLED.c ****     /*еӣ дёә1.3еҜёзҡ„OLEDй©ұеҠЁиҠҜзүҮпјҲSH1106пјүжңү132еҲ—*/
 366:User_BSP/OLED.c ****     /*еұҸе№•зҡ„иө·е§ӢеҲ—жҺҘеңЁдәҶз¬¬2еҲ—пјҢиҖҢдёҚжҳҜз¬¬0еҲ—*/
 367:User_BSP/OLED.c ****     /*жүҖд»ҘйңҖиҰҒе°ҶXеҠ 2пјҢжүҚиғҪжӯЈеёёжҳҫзӨә*/
 368:User_BSP/OLED.c ****     //	X += 2;
 369:User_BSP/OLED.c **** 
 370:User_BSP/OLED.c ****     /*йҖҡиҝҮжҢҮд»Өи®ҫзҪ®йЎөең°еқҖе’ҢеҲ—ең°еқҖ*/
 371:User_BSP/OLED.c ****     OLED_WriteCommand(0xB0 | Page);              // и®ҫзҪ®йЎөдҪҚзҪ®
 292              		.loc 1 371 5 is_stmt 1 view .LVU54
 293 0004 40F0B000 		orr	r0, r0, #176
 294              	.LVL20:
 295              		.loc 1 371 5 is_stmt 0 view .LVU55
 296 0008 FFF7FEFF 		bl	OLED_WriteCommand
 297              	.LVL21:
 372:User_BSP/OLED.c ****     OLED_WriteCommand(0x10 | ((X & 0xF0) >> 4)); // и®ҫзҪ®XдҪҚзҪ®й«ҳ4дҪҚ
 298              		.loc 1 372 5 is_stmt 1 view .LVU56
 299              		.loc 1 372 42 is_stmt 0 view .LVU57
 300 000c 2009     		lsrs	r0, r4, #4
 301              		.loc 1 372 5 view .LVU58
 302 000e 40F01000 		orr	r0, r0, #16
 303 0012 FFF7FEFF 		bl	OLED_WriteCommand
 304              	.LVL22:
 373:User_BSP/OLED.c ****     OLED_WriteCommand(0x00 | (X & 0x0F));        // и®ҫзҪ®XдҪҚзҪ®дҪҺ4дҪҚ
 305              		.loc 1 373 5 is_stmt 1 view .LVU59
 306 0016 04F00F00 		and	r0, r4, #15
 307 001a FFF7FEFF 		bl	OLED_WriteCommand
 308              	.LVL23:
 374:User_BSP/OLED.c **** }
 309              		.loc 1 374 1 is_stmt 0 view .LVU60
 310 001e 10BD     		pop	{r4, pc}
ARM GAS  C:\Users\bubble\AppData\Local\Temp\ccRMWmKE.s 			page 13


 311              		.cfi_endproc
 312              	.LFE249:
 314              		.section	.text.OLED_Pow,"ax",%progbits
 315              		.align	1
 316              		.global	OLED_Pow
 317              		.syntax unified
 318              		.thumb
 319              		.thumb_func
 321              	OLED_Pow:
 322              	.LVL24:
 323              	.LFB250:
 375:User_BSP/OLED.c **** 
 376:User_BSP/OLED.c **** /*********************зЎ¬д»¶й…ҚзҪ®*/
 377:User_BSP/OLED.c **** 
 378:User_BSP/OLED.c **** /*е·Ҙе…·еҮҪж•°*********************/
 379:User_BSP/OLED.c **** 
 380:User_BSP/OLED.c **** /*е·Ҙе…·еҮҪж•°д»…дҫӣеҶ…йғЁйғЁеҲҶеҮҪж•°дҪҝз”Ё*/
 381:User_BSP/OLED.c **** 
 382:User_BSP/OLED.c **** /**
 383:User_BSP/OLED.c ****  * @brief ж¬Ўж–№еҮҪж•°
 384:User_BSP/OLED.c ****  * @param X еә•ж•°
 385:User_BSP/OLED.c ****  * @param Y жҢҮж•°
 386:User_BSP/OLED.c ****  * @return зӯүдәҺXзҡ„Yж¬Ўж–№
 387:User_BSP/OLED.c ****  */
 388:User_BSP/OLED.c **** uint32_t OLED_Pow(uint32_t X, uint32_t Y)
 389:User_BSP/OLED.c **** {
 324              		.loc 1 389 1 is_stmt 1 view -0
 325              		.cfi_startproc
 326              		@ args = 0, pretend = 0, frame = 0
 327              		@ frame_needed = 0, uses_anonymous_args = 0
 328              		@ link register save eliminated.
 329              		.loc 1 389 1 is_stmt 0 view .LVU62
 330 0000 0246     		mov	r2, r0
 390:User_BSP/OLED.c ****     uint32_t Result = 1; // з»“жһңй»ҳи®Өдёә1
 331              		.loc 1 390 5 is_stmt 1 view .LVU63
 332              	.LVL25:
 391:User_BSP/OLED.c ****     while (Y--)          // зҙҜд№ҳYж¬Ў
 333              		.loc 1 391 5 view .LVU64
 390:User_BSP/OLED.c ****     uint32_t Result = 1; // з»“жһңй»ҳи®Өдёә1
 334              		.loc 1 390 14 is_stmt 0 view .LVU65
 335 0002 0120     		movs	r0, #1
 336              	.LVL26:
 337              		.loc 1 391 11 view .LVU66
 338 0004 02E0     		b	.L23
 339              	.LVL27:
 340              	.L24:
 392:User_BSP/OLED.c ****     {
 393:User_BSP/OLED.c ****         Result *= X; // жҜҸж¬ЎжҠҠXзҙҜд№ҳеҲ°з»“жһңдёҠ
 341              		.loc 1 393 9 is_stmt 1 view .LVU67
 342              		.loc 1 393 16 is_stmt 0 view .LVU68
 343 0006 02FB00F0 		mul	r0, r2, r0
 344              	.LVL28:
 391:User_BSP/OLED.c ****     while (Y--)          // зҙҜд№ҳYж¬Ў
 345              		.loc 1 391 13 view .LVU69
 346 000a 1946     		mov	r1, r3
 347              	.LVL29:
 348              	.L23:
ARM GAS  C:\Users\bubble\AppData\Local\Temp\ccRMWmKE.s 			page 14


 391:User_BSP/OLED.c ****     while (Y--)          // зҙҜд№ҳYж¬Ў
 349              		.loc 1 391 11 is_stmt 1 view .LVU70
 391:User_BSP/OLED.c ****     while (Y--)          // зҙҜд№ҳYж¬Ў
 350              		.loc 1 391 13 is_stmt 0 view .LVU71
 351 000c 4B1E     		subs	r3, r1, #1
 352              	.LVL30:
 391:User_BSP/OLED.c ****     while (Y--)          // зҙҜд№ҳYж¬Ў
 353              		.loc 1 391 11 view .LVU72
 354 000e 0029     		cmp	r1, #0
 355 0010 F9D1     		bne	.L24
 394:User_BSP/OLED.c ****     }
 395:User_BSP/OLED.c ****     return Result;
 356              		.loc 1 395 5 is_stmt 1 view .LVU73
 396:User_BSP/OLED.c **** }
 357              		.loc 1 396 1 is_stmt 0 view .LVU74
 358 0012 7047     		bx	lr
 359              		.cfi_endproc
 360              	.LFE250:
 362              		.section	.text.OLED_pnpoly,"ax",%progbits
 363              		.align	1
 364              		.global	OLED_pnpoly
 365              		.syntax unified
 366              		.thumb
 367              		.thumb_func
 369              	OLED_pnpoly:
 370              	.LVL31:
 371              	.LFB251:
 397:User_BSP/OLED.c **** 
 398:User_BSP/OLED.c **** /**
 399:User_BSP/OLED.c ****  * @brief еҲӨж–ӯжҢҮе®ҡзӮ№жҳҜеҗҰеңЁжҢҮе®ҡеӨҡиҫ№еҪўеҶ…йғЁ
 400:User_BSP/OLED.c ****  * @param nvert еӨҡиҫ№еҪўзҡ„йЎ¶зӮ№ж•°
 401:User_BSP/OLED.c ****  * @param vertx verty еҢ…еҗ«еӨҡиҫ№еҪўйЎ¶зӮ№зҡ„xе’Ңyеқҗж Үзҡ„ж•°з»„
 402:User_BSP/OLED.c ****  * @param testx testy жөӢиҜ•зӮ№зҡ„Xе’Ңyеқҗж Ү
 403:User_BSP/OLED.c ****  * @return жҢҮе®ҡзӮ№жҳҜеҗҰеңЁжҢҮе®ҡеӨҡиҫ№еҪўеҶ…йғЁпјҢ1пјҡеңЁеҶ…йғЁпјҢ0пјҡдёҚеңЁеҶ…йғЁ
 404:User_BSP/OLED.c ****  */
 405:User_BSP/OLED.c **** uint8_t OLED_pnpoly(uint8_t nvert, int16_t *vertx, int16_t *verty, int16_t testx, int16_t testy)
 406:User_BSP/OLED.c **** {
 372              		.loc 1 406 1 is_stmt 1 view -0
 373              		.cfi_startproc
 374              		@ args = 4, pretend = 0, frame = 0
 375              		@ frame_needed = 0, uses_anonymous_args = 0
 376              		.loc 1 406 1 is_stmt 0 view .LVU76
 377 0000 2DE9F043 		push	{r4, r5, r6, r7, r8, r9, lr}
 378              	.LCFI8:
 379              		.cfi_def_cfa_offset 28
 380              		.cfi_offset 4, -28
 381              		.cfi_offset 5, -24
 382              		.cfi_offset 6, -20
 383              		.cfi_offset 7, -16
 384              		.cfi_offset 8, -12
 385              		.cfi_offset 9, -8
 386              		.cfi_offset 14, -4
 387 0004 0746     		mov	r7, r0
 388 0006 BDF91C60 		ldrsh	r6, [sp, #28]
 407:User_BSP/OLED.c ****     int16_t i, j, c = 0;
 389              		.loc 1 407 5 is_stmt 1 view .LVU77
 390              	.LVL32:
ARM GAS  C:\Users\bubble\AppData\Local\Temp\ccRMWmKE.s 			page 15


 408:User_BSP/OLED.c **** 
 409:User_BSP/OLED.c ****     /*жӯӨз®—жі•з”ұW. Randolph FranklinжҸҗеҮә*/
 410:User_BSP/OLED.c ****     /*еҸӮиҖғй“ҫжҺҘпјҡhttps://wrfranklin.org/Research/Short_Notes/pnpoly.html*/
 411:User_BSP/OLED.c ****     for (i = 0, j = nvert - 1; i < nvert; j = i++) {
 391              		.loc 1 411 5 view .LVU78
 392              		.loc 1 411 19 is_stmt 0 view .LVU79
 393 000a 451E     		subs	r5, r0, #1
 394              	.LVL33:
 407:User_BSP/OLED.c ****     int16_t i, j, c = 0;
 395              		.loc 1 407 19 view .LVU80
 396 000c 0020     		movs	r0, #0
 397              	.LVL34:
 398              		.loc 1 411 12 view .LVU81
 399 000e 8446     		mov	ip, r0
 400              		.loc 1 411 5 view .LVU82
 401 0010 04E0     		b	.L26
 402              	.LVL35:
 403              	.L27:
 404              		.loc 1 411 43 is_stmt 1 discriminator 2 view .LVU83
 405              		.loc 1 411 48 is_stmt 0 discriminator 2 view .LVU84
 406 0012 0CF10104 		add	r4, ip, #1
 407              	.LVL36:
 408              		.loc 1 411 45 discriminator 2 view .LVU85
 409 0016 6546     		mov	r5, ip
 410              		.loc 1 411 48 discriminator 2 view .LVU86
 411 0018 0FFA84FC 		sxth	ip, r4
 412              	.LVL37:
 413              	.L26:
 414              		.loc 1 411 32 is_stmt 1 discriminator 1 view .LVU87
 415              		.loc 1 411 5 is_stmt 0 discriminator 1 view .LVU88
 416 001c BC45     		cmp	ip, r7
 417 001e 25DA     		bge	.L30
 412:User_BSP/OLED.c ****         if (((verty[i] > testy) != (verty[j] > testy)) &&
 418              		.loc 1 412 9 is_stmt 1 view .LVU89
 419              		.loc 1 412 20 is_stmt 0 view .LVU90
 420 0020 32F91C80 		ldrsh	r8, [r2, ip, lsl #1]
 421              		.loc 1 412 33 view .LVU91
 422 0024 B045     		cmp	r8, r6
 423 0026 D4BF     		ite	le
 424 0028 4FF00009 		movle	r9, #0
 425 002c 4FF00109 		movgt	r9, #1
 426              		.loc 1 412 42 view .LVU92
 427 0030 32F91540 		ldrsh	r4, [r2, r5, lsl #1]
 428              		.loc 1 412 33 view .LVU93
 429 0034 B442     		cmp	r4, r6
 430 0036 D4BF     		ite	le
 431 0038 4FF0000E 		movle	lr, #0
 432 003c 4FF0010E 		movgt	lr, #1
 433              		.loc 1 412 12 view .LVU94
 434 0040 F145     		cmp	r9, lr
 435 0042 E6D0     		beq	.L27
 413:User_BSP/OLED.c ****             (testx < (vertx[j] - vertx[i]) * (testy - verty[i]) / (verty[j] - verty[i]) + vertx[i])
 436              		.loc 1 413 28 discriminator 1 view .LVU95
 437 0044 31F915E0 		ldrsh	lr, [r1, r5, lsl #1]
 438              		.loc 1 413 39 discriminator 1 view .LVU96
 439 0048 31F91C50 		ldrsh	r5, [r1, ip, lsl #1]
 440              	.LVL38:
ARM GAS  C:\Users\bubble\AppData\Local\Temp\ccRMWmKE.s 			page 16


 441              		.loc 1 413 32 discriminator 1 view .LVU97
 442 004c AEEB050E 		sub	lr, lr, r5
 443              		.loc 1 413 53 discriminator 1 view .LVU98
 444 0050 A6EB0809 		sub	r9, r6, r8
 445              		.loc 1 413 44 discriminator 1 view .LVU99
 446 0054 09FB0EFE 		mul	lr, r9, lr
 447              		.loc 1 413 77 discriminator 1 view .LVU100
 448 0058 A4EB0804 		sub	r4, r4, r8
 449              		.loc 1 413 65 discriminator 1 view .LVU101
 450 005c 9EFBF4FE 		sdiv	lr, lr, r4
 451              		.loc 1 413 89 discriminator 1 view .LVU102
 452 0060 7544     		add	r5, r5, lr
 412:User_BSP/OLED.c ****         if (((verty[i] > testy) != (verty[j] > testy)) &&
 453              		.loc 1 412 56 discriminator 1 view .LVU103
 454 0062 AB42     		cmp	r3, r5
 455 0064 D5DA     		bge	.L27
 414:User_BSP/OLED.c ****             c = !c;
 456              		.loc 1 414 13 is_stmt 1 view .LVU104
 457              		.loc 1 414 15 is_stmt 0 view .LVU105
 458 0066 80F00100 		eor	r0, r0, #1
 459              	.LVL39:
 460              		.loc 1 414 15 view .LVU106
 461 006a D2E7     		b	.L27
 462              	.LVL40:
 463              	.L30:
 415:User_BSP/OLED.c ****         }
 416:User_BSP/OLED.c ****     }
 417:User_BSP/OLED.c ****     return c;
 464              		.loc 1 417 5 is_stmt 1 view .LVU107
 418:User_BSP/OLED.c **** }
 465              		.loc 1 418 1 is_stmt 0 view .LVU108
 466 006c BDE8F083 		pop	{r4, r5, r6, r7, r8, r9, pc}
 467              		.loc 1 418 1 view .LVU109
 468              		.cfi_endproc
 469              	.LFE251:
 471              		.global	__aeabi_i2d
 472              		.global	__aeabi_ddiv
 473              		.global	__aeabi_dmul
 474              		.global	__aeabi_d2iz
 475              		.section	.text.OLED_IsInAngle,"ax",%progbits
 476              		.align	1
 477              		.global	OLED_IsInAngle
 478              		.syntax unified
 479              		.thumb
 480              		.thumb_func
 482              	OLED_IsInAngle:
 483              	.LVL41:
 484              	.LFB252:
 419:User_BSP/OLED.c **** 
 420:User_BSP/OLED.c **** /**
 421:User_BSP/OLED.c ****  * @brief еҲӨж–ӯжҢҮе®ҡзӮ№жҳҜеҗҰеңЁжҢҮе®ҡи§’еәҰеҶ…йғЁ
 422:User_BSP/OLED.c ****  * @param X Y жҢҮе®ҡзӮ№зҡ„еқҗж Ү
 423:User_BSP/OLED.c ****  * @param StartAngle EndAngle иө·е§Ӣи§’еәҰе’Ңз»Ҳжӯўи§’еәҰпјҢиҢғеӣҙпјҡ-180-180
 424:User_BSP/OLED.c ****  *           ж°ҙе№іеҗ‘еҸідёә0еәҰпјҢж°ҙе№іеҗ‘е·Ұдёә180еәҰжҲ–-180еәҰпјҢдёӢж–№дёәжӯЈж•°пјҢдёҠж–№дёәиҙҹ
 425:User_BSP/OLED.c ****  * @return жҢҮе®ҡзӮ№жҳҜеҗҰеңЁжҢҮе®ҡи§’еәҰеҶ…йғЁпјҢ1пјҡеңЁеҶ…йғЁпјҢ0пјҡдёҚеңЁеҶ…йғЁ
 426:User_BSP/OLED.c ****  */
 427:User_BSP/OLED.c **** uint8_t OLED_IsInAngle(int16_t X, int16_t Y, int16_t StartAngle, int16_t EndAngle)
ARM GAS  C:\Users\bubble\AppData\Local\Temp\ccRMWmKE.s 			page 17


 428:User_BSP/OLED.c **** {
 485              		.loc 1 428 1 is_stmt 1 view -0
 486              		.cfi_startproc
 487              		@ args = 0, pretend = 0, frame = 0
 488              		@ frame_needed = 0, uses_anonymous_args = 0
 489              		.loc 1 428 1 is_stmt 0 view .LVU111
 490 0000 70B5     		push	{r4, r5, r6, lr}
 491              	.LCFI9:
 492              		.cfi_def_cfa_offset 16
 493              		.cfi_offset 4, -16
 494              		.cfi_offset 5, -12
 495              		.cfi_offset 6, -8
 496              		.cfi_offset 14, -4
 497 0002 2DED028B 		vpush.64	{d8}
 498              	.LCFI10:
 499              		.cfi_def_cfa_offset 24
 500              		.cfi_offset 80, -24
 501              		.cfi_offset 81, -20
 502 0006 0E46     		mov	r6, r1
 503 0008 1446     		mov	r4, r2
 504 000a 1D46     		mov	r5, r3
 429:User_BSP/OLED.c ****     int16_t PointAngle;
 505              		.loc 1 429 5 is_stmt 1 view .LVU112
 430:User_BSP/OLED.c ****     PointAngle = atan2(Y, X) / 3.14 * 180; // и®Ўз®—жҢҮе®ҡзӮ№зҡ„еј§еәҰпјҢе№¶иҪ¬жҚўдёәи§’еәҰиЎЁзӨә
 506              		.loc 1 430 5 view .LVU113
 507              		.loc 1 430 18 is_stmt 0 view .LVU114
 508 000c FFF7FEFF 		bl	__aeabi_i2d
 509              	.LVL42:
 510              		.loc 1 430 18 view .LVU115
 511 0010 41EC180B 		vmov	d8, r0, r1
 512 0014 3046     		mov	r0, r6
 513 0016 FFF7FEFF 		bl	__aeabi_i2d
 514              	.LVL43:
 515 001a B0EE481A 		vmov.f32	s2, s16
 516 001e F0EE681A 		vmov.f32	s3, s17
 517 0022 41EC100B 		vmov	d0, r0, r1
 518 0026 FFF7FEFF 		bl	atan2
 519              	.LVL44:
 520 002a 51EC100B 		vmov	r0, r1, d0
 521              		.loc 1 430 30 view .LVU116
 522 002e 13A3     		adr	r3, .L39+4
 523 0030 D3E90023 		ldrd	r2, [r3]
 524 0034 FFF7FEFF 		bl	__aeabi_ddiv
 525              	.LVL45:
 526              		.loc 1 430 37 view .LVU117
 527 0038 0022     		movs	r2, #0
 528 003a 0F4B     		ldr	r3, .L39
 529 003c FFF7FEFF 		bl	__aeabi_dmul
 530              	.LVL46:
 531              		.loc 1 430 16 view .LVU118
 532 0040 FFF7FEFF 		bl	__aeabi_d2iz
 533              	.LVL47:
 534 0044 00B2     		sxth	r0, r0
 535              	.LVL48:
 431:User_BSP/OLED.c ****     if (StartAngle < EndAngle)             // иө·е§Ӣи§’еәҰе°ҸдәҺз»Ҳжӯўи§’еәҰзҡ„жғ…еҶө
 536              		.loc 1 431 5 is_stmt 1 view .LVU119
 537              		.loc 1 431 8 is_stmt 0 view .LVU120
ARM GAS  C:\Users\bubble\AppData\Local\Temp\ccRMWmKE.s 			page 18


 538 0046 AC42     		cmp	r4, r5
 539 0048 05DA     		bge	.L32
 432:User_BSP/OLED.c ****     {
 433:User_BSP/OLED.c ****         /*еҰӮжһңжҢҮе®ҡи§’еәҰеңЁиө·е§Ӣз»Ҳжӯўи§’еәҰд№Ӣй—ҙпјҢеҲҷеҲӨе®ҡжҢҮе®ҡзӮ№еңЁжҢҮе®ҡи§’еәҰ*/
 434:User_BSP/OLED.c ****         if (PointAngle >= StartAngle && PointAngle <= EndAngle) {
 540              		.loc 1 434 9 is_stmt 1 view .LVU121
 541              		.loc 1 434 12 is_stmt 0 view .LVU122
 542 004a A042     		cmp	r0, r4
 543 004c 09DB     		blt	.L34
 544              		.loc 1 434 38 discriminator 1 view .LVU123
 545 004e A842     		cmp	r0, r5
 546 0050 0BDD     		ble	.L35
 435:User_BSP/OLED.c ****             return 1;
 436:User_BSP/OLED.c ****         }
 437:User_BSP/OLED.c ****     } else // иө·е§Ӣи§’еәҰеӨ§дәҺдәҺз»Ҳжӯўи§’еәҰзҡ„жғ…еҶө
 438:User_BSP/OLED.c ****     {
 439:User_BSP/OLED.c ****         /*еҰӮжһңжҢҮе®ҡи§’еәҰеӨ§дәҺиө·е§Ӣи§’еәҰжҲ–иҖ…е°ҸдәҺз»Ҳжӯўи§’еәҰпјҢеҲҷеҲӨе®ҡжҢҮе®ҡзӮ№еңЁжҢҮе®
 440:User_BSP/OLED.c ****         if (PointAngle >= StartAngle || PointAngle <= EndAngle) {
 441:User_BSP/OLED.c ****             return 1;
 442:User_BSP/OLED.c ****         }
 443:User_BSP/OLED.c ****     }
 444:User_BSP/OLED.c ****     return 0; // дёҚж»Ўи¶ід»ҘдёҠжқЎд»¶пјҢеҲҷеҲӨж–ӯеҲӨе®ҡжҢҮе®ҡзӮ№дёҚеңЁжҢҮе®ҡи§’еәҰ
 547              		.loc 1 444 12 view .LVU124
 548 0052 0020     		movs	r0, #0
 549              	.LVL49:
 550              		.loc 1 444 12 view .LVU125
 551 0054 06E0     		b	.L33
 552              	.LVL50:
 553              	.L32:
 440:User_BSP/OLED.c ****             return 1;
 554              		.loc 1 440 9 is_stmt 1 view .LVU126
 440:User_BSP/OLED.c ****             return 1;
 555              		.loc 1 440 12 is_stmt 0 view .LVU127
 556 0056 A042     		cmp	r0, r4
 557 0058 09DA     		bge	.L36
 440:User_BSP/OLED.c ****             return 1;
 558              		.loc 1 440 38 discriminator 1 view .LVU128
 559 005a A842     		cmp	r0, r5
 560 005c 09DD     		ble	.L37
 561              		.loc 1 444 12 view .LVU129
 562 005e 0020     		movs	r0, #0
 563              	.LVL51:
 564              		.loc 1 444 12 view .LVU130
 565 0060 00E0     		b	.L33
 566              	.LVL52:
 567              	.L34:
 568              		.loc 1 444 12 view .LVU131
 569 0062 0020     		movs	r0, #0
 570              	.LVL53:
 571              	.L33:
 445:User_BSP/OLED.c **** }
 572              		.loc 1 445 1 view .LVU132
 573 0064 BDEC028B 		vldm	sp!, {d8}
 574              	.LCFI11:
 575              		.cfi_remember_state
 576              		.cfi_restore 80
 577              		.cfi_restore 81
ARM GAS  C:\Users\bubble\AppData\Local\Temp\ccRMWmKE.s 			page 19


 578              		.cfi_def_cfa_offset 16
 579 0068 70BD     		pop	{r4, r5, r6, pc}
 580              	.LVL54:
 581              	.L35:
 582              	.LCFI12:
 583              		.cfi_restore_state
 435:User_BSP/OLED.c ****             return 1;
 584              		.loc 1 435 20 view .LVU133
 585 006a 0120     		movs	r0, #1
 586              	.LVL55:
 435:User_BSP/OLED.c ****             return 1;
 587              		.loc 1 435 20 view .LVU134
 588 006c FAE7     		b	.L33
 589              	.LVL56:
 590              	.L36:
 441:User_BSP/OLED.c ****         }
 591              		.loc 1 441 20 view .LVU135
 592 006e 0120     		movs	r0, #1
 593              	.LVL57:
 441:User_BSP/OLED.c ****         }
 594              		.loc 1 441 20 view .LVU136
 595 0070 F8E7     		b	.L33
 596              	.LVL58:
 597              	.L37:
 441:User_BSP/OLED.c ****         }
 598              		.loc 1 441 20 view .LVU137
 599 0072 0120     		movs	r0, #1
 600              	.LVL59:
 441:User_BSP/OLED.c ****         }
 601              		.loc 1 441 20 view .LVU138
 602 0074 F6E7     		b	.L33
 603              	.L40:
 604 0076 00BF     		.align	3
 605              	.L39:
 606 0078 00806640 		.word	1080459264
 607 007c 1F85EB51 		.word	1374389535
 608 0080 B81E0940 		.word	1074339512
 609              		.cfi_endproc
 610              	.LFE252:
 612              		.section	.text.OLED_Update,"ax",%progbits
 613              		.align	1
 614              		.global	OLED_Update
 615              		.syntax unified
 616              		.thumb
 617              		.thumb_func
 619              	OLED_Update:
 620              	.LFB253:
 446:User_BSP/OLED.c **** 
 447:User_BSP/OLED.c **** /*********************е·Ҙе…·еҮҪж•°*/
 448:User_BSP/OLED.c **** 
 449:User_BSP/OLED.c **** /*еҠҹиғҪеҮҪж•°*********************/
 450:User_BSP/OLED.c **** 
 451:User_BSP/OLED.c **** /**
 452:User_BSP/OLED.c ****  * @brief е°ҶOLEDжҳҫеӯҳж•°з»„жӣҙж–°еҲ°OLEDеұҸе№•
 453:User_BSP/OLED.c ****  * @param ж— 
 454:User_BSP/OLED.c ****  * @return ж— 
 455:User_BSP/OLED.c ****  * @note жүҖжңүзҡ„жҳҫзӨәеҮҪж•°пјҢйғҪеҸӘжҳҜеҜ№OLEDжҳҫеӯҳж•°з»„иҝӣиЎҢиҜ»еҶҷ
ARM GAS  C:\Users\bubble\AppData\Local\Temp\ccRMWmKE.s 			page 20


 456:User_BSP/OLED.c ****  *           йҡҸеҗҺи°ғз”ЁOLED_UpdateеҮҪж•°жҲ–OLED_UpdateAreaеҮҪж•°
 457:User_BSP/OLED.c ****  *           жүҚдјҡе°Ҷжҳҫеӯҳж•°з»„зҡ„ж•°жҚ®еҸ‘йҖҒеҲ°OLEDзЎ¬д»¶пјҢиҝӣиЎҢжҳҫзӨә
 458:User_BSP/OLED.c ****  *           ж•…и°ғз”ЁжҳҫзӨәеҮҪж•°еҗҺпјҢиҰҒжғізңҹжӯЈең°е‘ҲзҺ°еңЁеұҸе№•дёҠпјҢиҝҳйңҖи°ғз”Ёжӣҙж–°еҮҪж•
 459:User_BSP/OLED.c ****  */
 460:User_BSP/OLED.c **** void OLED_Update(void)
 461:User_BSP/OLED.c **** {
 621              		.loc 1 461 1 is_stmt 1 view -0
 622              		.cfi_startproc
 623              		@ args = 0, pretend = 0, frame = 0
 624              		@ frame_needed = 0, uses_anonymous_args = 0
 625 0000 10B5     		push	{r4, lr}
 626              	.LCFI13:
 627              		.cfi_def_cfa_offset 8
 628              		.cfi_offset 4, -8
 629              		.cfi_offset 14, -4
 462:User_BSP/OLED.c ****     uint8_t j;
 630              		.loc 1 462 5 view .LVU140
 463:User_BSP/OLED.c ****     /*йҒҚеҺҶжҜҸдёҖйЎө*/
 464:User_BSP/OLED.c ****     for (j = 0; j < 8; j++) {
 631              		.loc 1 464 5 view .LVU141
 632              	.LVL60:
 633              		.loc 1 464 12 is_stmt 0 view .LVU142
 634 0002 0024     		movs	r4, #0
 635              		.loc 1 464 5 view .LVU143
 636 0004 0BE0     		b	.L42
 637              	.LVL61:
 638              	.L43:
 465:User_BSP/OLED.c ****         /*и®ҫзҪ®е…үж ҮдҪҚзҪ®дёәжҜҸдёҖйЎөзҡ„з¬¬дёҖеҲ—*/
 466:User_BSP/OLED.c ****         OLED_SetCursor(j, 0);
 639              		.loc 1 466 9 is_stmt 1 discriminator 3 view .LVU144
 640 0006 0021     		movs	r1, #0
 641 0008 2046     		mov	r0, r4
 642 000a FFF7FEFF 		bl	OLED_SetCursor
 643              	.LVL62:
 467:User_BSP/OLED.c ****         /*иҝһз»ӯеҶҷе…Ҙ128дёӘж•°жҚ®пјҢе°Ҷжҳҫеӯҳж•°з»„зҡ„ж•°жҚ®еҶҷе…ҘеҲ°OLEDзЎ¬д»¶*/
 468:User_BSP/OLED.c ****         OLED_WriteData(OLED_DisplayBuf[j], 128);
 644              		.loc 1 468 9 discriminator 3 view .LVU145
 645 000e 8021     		movs	r1, #128
 646 0010 0448     		ldr	r0, .L45
 647 0012 00EBC410 		add	r0, r0, r4, lsl #7
 648 0016 FFF7FEFF 		bl	OLED_WriteData
 649              	.LVL63:
 464:User_BSP/OLED.c ****         /*и®ҫзҪ®е…үж ҮдҪҚзҪ®дёәжҜҸдёҖйЎөзҡ„з¬¬дёҖеҲ—*/
 650              		.loc 1 464 24 discriminator 3 view .LVU146
 464:User_BSP/OLED.c ****         /*и®ҫзҪ®е…үж ҮдҪҚзҪ®дёәжҜҸдёҖйЎөзҡ„з¬¬дёҖеҲ—*/
 651              		.loc 1 464 25 is_stmt 0 discriminator 3 view .LVU147
 652 001a 0134     		adds	r4, r4, #1
 653              	.LVL64:
 464:User_BSP/OLED.c ****         /*и®ҫзҪ®е…үж ҮдҪҚзҪ®дёәжҜҸдёҖйЎөзҡ„з¬¬дёҖеҲ—*/
 654              		.loc 1 464 25 discriminator 3 view .LVU148
 655 001c E4B2     		uxtb	r4, r4
 656              	.LVL65:
 657              	.L42:
 464:User_BSP/OLED.c ****         /*и®ҫзҪ®е…үж ҮдҪҚзҪ®дёәжҜҸдёҖйЎөзҡ„з¬¬дёҖеҲ—*/
 658              		.loc 1 464 17 is_stmt 1 discriminator 1 view .LVU149
 464:User_BSP/OLED.c ****         /*и®ҫзҪ®е…үж ҮдҪҚзҪ®дёәжҜҸдёҖйЎөзҡ„з¬¬дёҖеҲ—*/
 659              		.loc 1 464 5 is_stmt 0 discriminator 1 view .LVU150
ARM GAS  C:\Users\bubble\AppData\Local\Temp\ccRMWmKE.s 			page 21


 660 001e 072C     		cmp	r4, #7
 661 0020 F1D9     		bls	.L43
 469:User_BSP/OLED.c ****     }
 470:User_BSP/OLED.c **** }
 662              		.loc 1 470 1 view .LVU151
 663 0022 10BD     		pop	{r4, pc}
 664              	.LVL66:
 665              	.L46:
 666              		.loc 1 470 1 view .LVU152
 667              		.align	2
 668              	.L45:
 669 0024 00000000 		.word	.LANCHOR0
 670              		.cfi_endproc
 671              	.LFE253:
 673              		.section	.text.OLED_UpdateArea,"ax",%progbits
 674              		.align	1
 675              		.global	OLED_UpdateArea
 676              		.syntax unified
 677              		.thumb
 678              		.thumb_func
 680              	OLED_UpdateArea:
 681              	.LVL67:
 682              	.LFB254:
 471:User_BSP/OLED.c **** 
 472:User_BSP/OLED.c **** /**
 473:User_BSP/OLED.c ****  * @brief е°ҶOLEDжҳҫеӯҳж•°з»„йғЁеҲҶжӣҙж–°еҲ°OLEDеұҸе№•
 474:User_BSP/OLED.c ****  * @param X жҢҮе®ҡеҢәеҹҹе·ҰдёҠи§’зҡ„жЁӘеқҗж ҮпјҢиҢғеӣҙпјҡ0-127
 475:User_BSP/OLED.c ****  * @param Y жҢҮе®ҡеҢәеҹҹе·ҰдёҠи§’зҡ„зәөеқҗж ҮпјҢиҢғеӣҙпјҡ0-63
 476:User_BSP/OLED.c ****  * @param Width жҢҮе®ҡеҢәеҹҹзҡ„е®ҪеәҰпјҢиҢғеӣҙпјҡ0-128
 477:User_BSP/OLED.c ****  * @param Height жҢҮе®ҡеҢәеҹҹзҡ„й«ҳеәҰпјҢиҢғеӣҙпјҡ0-64
 478:User_BSP/OLED.c ****  * @return ж— 
 479:User_BSP/OLED.c ****  * @note жӯӨеҮҪж•°дјҡиҮіе°‘жӣҙж–°еҸӮж•°жҢҮе®ҡзҡ„еҢәеҹҹ
 480:User_BSP/OLED.c ****  *           еҰӮжһңжӣҙж–°еҢәеҹҹYиҪҙеҸӘеҢ…еҗ«йғЁеҲҶйЎөпјҢеҲҷеҗҢдёҖйЎөзҡ„еү©дҪҷйғЁеҲҶдјҡи·ҹйҡҸдёҖиө·ж
 481:User_BSP/OLED.c ****  * @note жүҖжңүзҡ„жҳҫзӨәеҮҪж•°пјҢйғҪеҸӘжҳҜеҜ№OLEDжҳҫеӯҳж•°з»„иҝӣиЎҢиҜ»еҶҷ
 482:User_BSP/OLED.c ****  *           йҡҸеҗҺи°ғз”ЁOLED_UpdateеҮҪж•°жҲ–OLED_UpdateAreaеҮҪж•°
 483:User_BSP/OLED.c ****  *           жүҚдјҡе°Ҷжҳҫеӯҳж•°з»„зҡ„ж•°жҚ®еҸ‘йҖҒеҲ°OLEDзЎ¬д»¶пјҢиҝӣиЎҢжҳҫзӨә
 484:User_BSP/OLED.c ****  *           ж•…и°ғз”ЁжҳҫзӨәеҮҪж•°еҗҺпјҢиҰҒжғізңҹжӯЈең°е‘ҲзҺ°еңЁеұҸе№•дёҠпјҢиҝҳйңҖи°ғз”Ёжӣҙж–°еҮҪж•
 485:User_BSP/OLED.c ****  */
 486:User_BSP/OLED.c **** void OLED_UpdateArea(uint8_t X, uint8_t Y, uint8_t Width, uint8_t Height)
 487:User_BSP/OLED.c **** {
 683              		.loc 1 487 1 is_stmt 1 view -0
 684              		.cfi_startproc
 685              		@ args = 0, pretend = 0, frame = 0
 686              		@ frame_needed = 0, uses_anonymous_args = 0
 488:User_BSP/OLED.c ****     uint8_t j;
 687              		.loc 1 488 5 view .LVU154
 489:User_BSP/OLED.c **** 
 490:User_BSP/OLED.c ****     /*еҸӮж•°жЈҖжҹҘпјҢдҝқиҜҒжҢҮе®ҡеҢәеҹҹдёҚдјҡи¶…еҮәеұҸе№•иҢғеӣҙ*/
 491:User_BSP/OLED.c ****     if (X > 127) { return; }
 688              		.loc 1 491 5 view .LVU155
 689              		.loc 1 491 8 is_stmt 0 view .LVU156
 690 0000 10F0800F 		tst	r0, #128
 691 0004 30D1     		bne	.L55
 487:User_BSP/OLED.c ****     uint8_t j;
 692              		.loc 1 487 1 view .LVU157
 693 0006 2DE9F041 		push	{r4, r5, r6, r7, r8, lr}
 694              	.LCFI14:
ARM GAS  C:\Users\bubble\AppData\Local\Temp\ccRMWmKE.s 			page 22


 695              		.cfi_def_cfa_offset 24
 696              		.cfi_offset 4, -24
 697              		.cfi_offset 5, -20
 698              		.cfi_offset 6, -16
 699              		.cfi_offset 7, -12
 700              		.cfi_offset 8, -8
 701              		.cfi_offset 14, -4
 702 000a 0546     		mov	r5, r0
 703 000c 0E46     		mov	r6, r1
 704 000e 9046     		mov	r8, r2
 705 0010 1F46     		mov	r7, r3
 492:User_BSP/OLED.c ****     if (Y > 63) { return; }
 706              		.loc 1 492 5 is_stmt 1 view .LVU158
 707              		.loc 1 492 8 is_stmt 0 view .LVU159
 708 0012 3F29     		cmp	r1, #63
 709 0014 26D8     		bhi	.L47
 493:User_BSP/OLED.c ****     if (X + Width > 128) { Width = 128 - X; }
 710              		.loc 1 493 5 is_stmt 1 view .LVU160
 711              		.loc 1 493 11 is_stmt 0 view .LVU161
 712 0016 1318     		adds	r3, r2, r0
 713              	.LVL68:
 714              		.loc 1 493 8 view .LVU162
 715 0018 802B     		cmp	r3, #128
 716 001a 03DD     		ble	.L49
 717              		.loc 1 493 28 is_stmt 1 discriminator 1 view .LVU163
 718              		.loc 1 493 34 is_stmt 0 discriminator 1 view .LVU164
 719 001c C0F18008 		rsb	r8, r0, #128
 720 0020 5FFA88F8 		uxtb	r8, r8
 721              	.LVL69:
 722              	.L49:
 494:User_BSP/OLED.c ****     if (Y + Height > 64) { Height = 64 - Y; }
 723              		.loc 1 494 5 is_stmt 1 view .LVU165
 724              		.loc 1 494 11 is_stmt 0 view .LVU166
 725 0024 BB19     		adds	r3, r7, r6
 726              		.loc 1 494 8 view .LVU167
 727 0026 402B     		cmp	r3, #64
 728 0028 02DD     		ble	.L50
 729              		.loc 1 494 28 is_stmt 1 discriminator 1 view .LVU168
 730              		.loc 1 494 35 is_stmt 0 discriminator 1 view .LVU169
 731 002a C6F14007 		rsb	r7, r6, #64
 732 002e FFB2     		uxtb	r7, r7
 733              	.LVL70:
 734              	.L50:
 495:User_BSP/OLED.c **** 
 496:User_BSP/OLED.c ****     /*йҒҚеҺҶжҢҮе®ҡеҢәеҹҹж¶үеҸҠзҡ„зӣёе…ійЎө*/
 497:User_BSP/OLED.c ****     /*(Y + Height - 1) / 8 + 1зҡ„зӣ®зҡ„жҳҜ(Y + Height) / 8е№¶еҗ‘дёҠеҸ–ж•ҙ*/
 498:User_BSP/OLED.c ****     for (j = Y / 8; j < (Y + Height - 1) / 8 + 1; j++) {
 735              		.loc 1 498 5 is_stmt 1 view .LVU170
 736              		.loc 1 498 12 is_stmt 0 view .LVU171
 737 0030 F408     		lsrs	r4, r6, #3
 738              	.LVL71:
 739              		.loc 1 498 5 view .LVU172
 740 0032 0FE0     		b	.L51
 741              	.LVL72:
 742              	.L52:
 743              		.loc 1 498 5 discriminator 1 view .LVU173
 744 0034 B4EBEC0F 		cmp	r4, ip, asr #3
ARM GAS  C:\Users\bubble\AppData\Local\Temp\ccRMWmKE.s 			page 23


 745 0038 14DC     		bgt	.L47
 499:User_BSP/OLED.c ****         /*и®ҫзҪ®е…үж ҮдҪҚзҪ®дёәзӣёе…ійЎөзҡ„жҢҮе®ҡеҲ—*/
 500:User_BSP/OLED.c ****         OLED_SetCursor(j, X);
 746              		.loc 1 500 9 is_stmt 1 discriminator 3 view .LVU174
 747 003a 2946     		mov	r1, r5
 748 003c 2046     		mov	r0, r4
 749 003e FFF7FEFF 		bl	OLED_SetCursor
 750              	.LVL73:
 501:User_BSP/OLED.c ****         /*иҝһз»ӯеҶҷе…ҘWidthдёӘж•°жҚ®пјҢе°Ҷжҳҫеӯҳж•°з»„зҡ„ж•°жҚ®еҶҷе…ҘеҲ°OLEDзЎ¬д»¶*/
 502:User_BSP/OLED.c ****         OLED_WriteData(&OLED_DisplayBuf[j][X], Width);
 751              		.loc 1 502 9 discriminator 3 view .LVU175
 752 0042 05EBC413 		add	r3, r5, r4, lsl #7
 753 0046 4146     		mov	r1, r8
 754 0048 0848     		ldr	r0, .L58
 755 004a 1844     		add	r0, r0, r3
 756 004c FFF7FEFF 		bl	OLED_WriteData
 757              	.LVL74:
 498:User_BSP/OLED.c ****         /*и®ҫзҪ®е…үж ҮдҪҚзҪ®дёәзӣёе…ійЎөзҡ„жҢҮе®ҡеҲ—*/
 758              		.loc 1 498 51 discriminator 3 view .LVU176
 498:User_BSP/OLED.c ****         /*и®ҫзҪ®е…үж ҮдҪҚзҪ®дёәзӣёе…ійЎөзҡ„жҢҮе®ҡеҲ—*/
 759              		.loc 1 498 52 is_stmt 0 discriminator 3 view .LVU177
 760 0050 0134     		adds	r4, r4, #1
 761              	.LVL75:
 498:User_BSP/OLED.c ****         /*и®ҫзҪ®е…үж ҮдҪҚзҪ®дёәзӣёе…ійЎөзҡ„жҢҮе®ҡеҲ—*/
 762              		.loc 1 498 52 discriminator 3 view .LVU178
 763 0052 E4B2     		uxtb	r4, r4
 764              	.LVL76:
 765              	.L51:
 498:User_BSP/OLED.c ****         /*и®ҫзҪ®е…үж ҮдҪҚзҪ®дёәзӣёе…ійЎөзҡ„жҢҮе®ҡеҲ—*/
 766              		.loc 1 498 21 is_stmt 1 discriminator 1 view .LVU179
 498:User_BSP/OLED.c ****         /*и®ҫзҪ®е…үж ҮдҪҚзҪ®дёәзӣёе…ійЎөзҡ„жҢҮе®ҡеҲ—*/
 767              		.loc 1 498 28 is_stmt 0 discriminator 1 view .LVU180
 768 0054 07EB060C 		add	ip, r7, r6
 498:User_BSP/OLED.c ****         /*и®ҫзҪ®е…үж ҮдҪҚзҪ®дёәзӣёе…ійЎөзҡ„жҢҮе®ҡеҲ—*/
 769              		.loc 1 498 42 discriminator 1 view .LVU181
 770 0058 BCF1010C 		subs	ip, ip, #1
 771 005c EAD5     		bpl	.L52
 498:User_BSP/OLED.c ****         /*и®ҫзҪ®е…үж ҮдҪҚзҪ®дёәзӣёе…ійЎөзҡ„жҢҮе®ҡеҲ—*/
 772              		.loc 1 498 42 discriminator 1 view .LVU182
 773 005e 0CF1070C 		add	ip, ip, #7
 774 0062 E7E7     		b	.L52
 775              	.LVL77:
 776              	.L47:
 503:User_BSP/OLED.c ****     }
 504:User_BSP/OLED.c **** }
 777              		.loc 1 504 1 view .LVU183
 778 0064 BDE8F081 		pop	{r4, r5, r6, r7, r8, pc}
 779              	.LVL78:
 780              	.L55:
 781              	.LCFI15:
 782              		.cfi_def_cfa_offset 0
 783              		.cfi_restore 4
 784              		.cfi_restore 5
 785              		.cfi_restore 6
 786              		.cfi_restore 7
 787              		.cfi_restore 8
 788              		.cfi_restore 14
ARM GAS  C:\Users\bubble\AppData\Local\Temp\ccRMWmKE.s 			page 24


 789              		.loc 1 504 1 view .LVU184
 790 0068 7047     		bx	lr
 791              	.L59:
 792 006a 00BF     		.align	2
 793              	.L58:
 794 006c 00000000 		.word	.LANCHOR0
 795              		.cfi_endproc
 796              	.LFE254:
 798              		.section	.text.OLED_Clear,"ax",%progbits
 799              		.align	1
 800              		.global	OLED_Clear
 801              		.syntax unified
 802              		.thumb
 803              		.thumb_func
 805              	OLED_Clear:
 806              	.LFB255:
 505:User_BSP/OLED.c **** 
 506:User_BSP/OLED.c **** /**
 507:User_BSP/OLED.c ****  * @brief е°ҶOLEDжҳҫеӯҳж•°з»„е…ЁйғЁжё…йӣ¶
 508:User_BSP/OLED.c ****  * @param ж— 
 509:User_BSP/OLED.c ****  * @return ж— 
 510:User_BSP/OLED.c ****  * @note и°ғз”ЁжӯӨеҮҪж•°еҗҺпјҢиҰҒжғізңҹжӯЈең°е‘ҲзҺ°еңЁеұҸе№•дёҠпјҢиҝҳйңҖи°ғз”Ёжӣҙж–°еҮҪж•°
 511:User_BSP/OLED.c ****  */
 512:User_BSP/OLED.c **** void OLED_Clear(void)
 513:User_BSP/OLED.c **** {
 807              		.loc 1 513 1 is_stmt 1 view -0
 808              		.cfi_startproc
 809              		@ args = 0, pretend = 0, frame = 0
 810              		@ frame_needed = 0, uses_anonymous_args = 0
 811              		@ link register save eliminated.
 514:User_BSP/OLED.c ****     uint8_t i, j;
 812              		.loc 1 514 5 view .LVU186
 515:User_BSP/OLED.c ****     for (j = 0; j < 8; j++) // йҒҚеҺҶ8йЎө
 813              		.loc 1 515 5 view .LVU187
 814              	.LVL79:
 815              		.loc 1 515 12 is_stmt 0 view .LVU188
 816 0000 0020     		movs	r0, #0
 817              		.loc 1 515 5 view .LVU189
 818 0002 0BE0     		b	.L61
 819              	.LVL80:
 820              	.L62:
 516:User_BSP/OLED.c ****     {
 517:User_BSP/OLED.c ****         for (i = 0; i < 128; i++) // йҒҚеҺҶ128еҲ—
 518:User_BSP/OLED.c ****         {
 519:User_BSP/OLED.c ****             OLED_DisplayBuf[j][i] = 0x00; // е°Ҷжҳҫеӯҳж•°з»„ж•°жҚ®е…ЁйғЁжё…йӣ¶
 821              		.loc 1 519 13 is_stmt 1 discriminator 3 view .LVU190
 822              		.loc 1 519 35 is_stmt 0 discriminator 3 view .LVU191
 823 0004 084A     		ldr	r2, .L66
 824 0006 02EBC012 		add	r2, r2, r0, lsl #7
 825 000a 0021     		movs	r1, #0
 826 000c D154     		strb	r1, [r2, r3]
 517:User_BSP/OLED.c ****         {
 827              		.loc 1 517 30 is_stmt 1 discriminator 3 view .LVU192
 517:User_BSP/OLED.c ****         {
 828              		.loc 1 517 31 is_stmt 0 discriminator 3 view .LVU193
 829 000e 0133     		adds	r3, r3, #1
 830              	.LVL81:
ARM GAS  C:\Users\bubble\AppData\Local\Temp\ccRMWmKE.s 			page 25


 517:User_BSP/OLED.c ****         {
 831              		.loc 1 517 31 discriminator 3 view .LVU194
 832 0010 DBB2     		uxtb	r3, r3
 833              	.LVL82:
 834              	.L63:
 517:User_BSP/OLED.c ****         {
 835              		.loc 1 517 21 is_stmt 1 discriminator 1 view .LVU195
 517:User_BSP/OLED.c ****         {
 836              		.loc 1 517 9 is_stmt 0 discriminator 1 view .LVU196
 837 0012 13F0800F 		tst	r3, #128
 838 0016 F5D0     		beq	.L62
 515:User_BSP/OLED.c ****     for (j = 0; j < 8; j++) // йҒҚеҺҶ8йЎө
 839              		.loc 1 515 24 is_stmt 1 discriminator 2 view .LVU197
 515:User_BSP/OLED.c ****     for (j = 0; j < 8; j++) // йҒҚеҺҶ8йЎө
 840              		.loc 1 515 25 is_stmt 0 discriminator 2 view .LVU198
 841 0018 0130     		adds	r0, r0, #1
 842              	.LVL83:
 515:User_BSP/OLED.c ****     for (j = 0; j < 8; j++) // йҒҚеҺҶ8йЎө
 843              		.loc 1 515 25 discriminator 2 view .LVU199
 844 001a C0B2     		uxtb	r0, r0
 845              	.LVL84:
 846              	.L61:
 515:User_BSP/OLED.c ****     for (j = 0; j < 8; j++) // йҒҚеҺҶ8йЎө
 847              		.loc 1 515 17 is_stmt 1 discriminator 1 view .LVU200
 515:User_BSP/OLED.c ****     for (j = 0; j < 8; j++) // йҒҚеҺҶ8йЎө
 848              		.loc 1 515 5 is_stmt 0 discriminator 1 view .LVU201
 849 001c 0728     		cmp	r0, #7
 850 001e 01D8     		bhi	.L65
 517:User_BSP/OLED.c ****         {
 851              		.loc 1 517 16 view .LVU202
 852 0020 0023     		movs	r3, #0
 853 0022 F6E7     		b	.L63
 854              	.L65:
 520:User_BSP/OLED.c ****         }
 521:User_BSP/OLED.c ****     }
 522:User_BSP/OLED.c **** }
 855              		.loc 1 522 1 view .LVU203
 856 0024 7047     		bx	lr
 857              	.L67:
 858 0026 00BF     		.align	2
 859              	.L66:
 860 0028 00000000 		.word	.LANCHOR0
 861              		.cfi_endproc
 862              	.LFE255:
 864              		.section	.text.OLED_Init,"ax",%progbits
 865              		.align	1
 866              		.global	OLED_Init
 867              		.syntax unified
 868              		.thumb
 869              		.thumb_func
 871              	OLED_Init:
 872              	.LFB248:
 309:User_BSP/OLED.c ****     OLED_GPIO_Init(); // е…Ҳи°ғз”Ёеә•еұӮзҡ„з«ҜеҸЈеҲқе§ӢеҢ–
 873              		.loc 1 309 1 is_stmt 1 view -0
 874              		.cfi_startproc
 875              		@ args = 0, pretend = 0, frame = 0
 876              		@ frame_needed = 0, uses_anonymous_args = 0
ARM GAS  C:\Users\bubble\AppData\Local\Temp\ccRMWmKE.s 			page 26


 877 0000 08B5     		push	{r3, lr}
 878              	.LCFI16:
 879              		.cfi_def_cfa_offset 8
 880              		.cfi_offset 3, -8
 881              		.cfi_offset 14, -4
 310:User_BSP/OLED.c **** 
 882              		.loc 1 310 5 view .LVU205
 313:User_BSP/OLED.c **** 
 883              		.loc 1 313 5 view .LVU206
 884 0002 AE20     		movs	r0, #174
 885 0004 FFF7FEFF 		bl	OLED_WriteCommand
 886              	.LVL85:
 315:User_BSP/OLED.c ****     OLED_WriteCommand(0x80); // 0x00~0xFF
 887              		.loc 1 315 5 view .LVU207
 888 0008 D520     		movs	r0, #213
 889 000a FFF7FEFF 		bl	OLED_WriteCommand
 890              	.LVL86:
 316:User_BSP/OLED.c **** 
 891              		.loc 1 316 5 view .LVU208
 892 000e 8020     		movs	r0, #128
 893 0010 FFF7FEFF 		bl	OLED_WriteCommand
 894              	.LVL87:
 318:User_BSP/OLED.c ****     OLED_WriteCommand(0x3F); // 0x0E~0x3F
 895              		.loc 1 318 5 view .LVU209
 896 0014 A820     		movs	r0, #168
 897 0016 FFF7FEFF 		bl	OLED_WriteCommand
 898              	.LVL88:
 319:User_BSP/OLED.c **** 
 899              		.loc 1 319 5 view .LVU210
 900 001a 3F20     		movs	r0, #63
 901 001c FFF7FEFF 		bl	OLED_WriteCommand
 902              	.LVL89:
 321:User_BSP/OLED.c ****     OLED_WriteCommand(0x00); // 0x00~0x7F
 903              		.loc 1 321 5 view .LVU211
 904 0020 D320     		movs	r0, #211
 905 0022 FFF7FEFF 		bl	OLED_WriteCommand
 906              	.LVL90:
 322:User_BSP/OLED.c **** 
 907              		.loc 1 322 5 view .LVU212
 908 0026 0020     		movs	r0, #0
 909 0028 FFF7FEFF 		bl	OLED_WriteCommand
 910              	.LVL91:
 324:User_BSP/OLED.c **** 
 911              		.loc 1 324 5 view .LVU213
 912 002c 4020     		movs	r0, #64
 913 002e FFF7FEFF 		bl	OLED_WriteCommand
 914              	.LVL92:
 326:User_BSP/OLED.c **** 
 915              		.loc 1 326 5 view .LVU214
 916 0032 A120     		movs	r0, #161
 917 0034 FFF7FEFF 		bl	OLED_WriteCommand
 918              	.LVL93:
 328:User_BSP/OLED.c **** 
 919              		.loc 1 328 5 view .LVU215
 920 0038 C820     		movs	r0, #200
 921 003a FFF7FEFF 		bl	OLED_WriteCommand
 922              	.LVL94:
ARM GAS  C:\Users\bubble\AppData\Local\Temp\ccRMWmKE.s 			page 27


 330:User_BSP/OLED.c ****     OLED_WriteCommand(0x12);
 923              		.loc 1 330 5 view .LVU216
 924 003e DA20     		movs	r0, #218
 925 0040 FFF7FEFF 		bl	OLED_WriteCommand
 926              	.LVL95:
 331:User_BSP/OLED.c **** 
 927              		.loc 1 331 5 view .LVU217
 928 0044 1220     		movs	r0, #18
 929 0046 FFF7FEFF 		bl	OLED_WriteCommand
 930              	.LVL96:
 333:User_BSP/OLED.c ****     OLED_WriteCommand(0xCF); // 0x00~0xFF
 931              		.loc 1 333 5 view .LVU218
 932 004a 8120     		movs	r0, #129
 933 004c FFF7FEFF 		bl	OLED_WriteCommand
 934              	.LVL97:
 334:User_BSP/OLED.c **** 
 935              		.loc 1 334 5 view .LVU219
 936 0050 CF20     		movs	r0, #207
 937 0052 FFF7FEFF 		bl	OLED_WriteCommand
 938              	.LVL98:
 336:User_BSP/OLED.c ****     OLED_WriteCommand(0xF1);
 939              		.loc 1 336 5 view .LVU220
 940 0056 D920     		movs	r0, #217
 941 0058 FFF7FEFF 		bl	OLED_WriteCommand
 942              	.LVL99:
 337:User_BSP/OLED.c **** 
 943              		.loc 1 337 5 view .LVU221
 944 005c F120     		movs	r0, #241
 945 005e FFF7FEFF 		bl	OLED_WriteCommand
 946              	.LVL100:
 339:User_BSP/OLED.c ****     OLED_WriteCommand(0x30);
 947              		.loc 1 339 5 view .LVU222
 948 0062 DB20     		movs	r0, #219
 949 0064 FFF7FEFF 		bl	OLED_WriteCommand
 950              	.LVL101:
 340:User_BSP/OLED.c **** 
 951              		.loc 1 340 5 view .LVU223
 952 0068 3020     		movs	r0, #48
 953 006a FFF7FEFF 		bl	OLED_WriteCommand
 954              	.LVL102:
 342:User_BSP/OLED.c **** 
 955              		.loc 1 342 5 view .LVU224
 956 006e A420     		movs	r0, #164
 957 0070 FFF7FEFF 		bl	OLED_WriteCommand
 958              	.LVL103:
 344:User_BSP/OLED.c **** 
 959              		.loc 1 344 5 view .LVU225
 960 0074 A620     		movs	r0, #166
 961 0076 FFF7FEFF 		bl	OLED_WriteCommand
 962              	.LVL104:
 346:User_BSP/OLED.c ****     OLED_WriteCommand(0x14);
 963              		.loc 1 346 5 view .LVU226
 964 007a 8D20     		movs	r0, #141
 965 007c FFF7FEFF 		bl	OLED_WriteCommand
 966              	.LVL105:
 347:User_BSP/OLED.c **** 
 967              		.loc 1 347 5 view .LVU227
ARM GAS  C:\Users\bubble\AppData\Local\Temp\ccRMWmKE.s 			page 28


 968 0080 1420     		movs	r0, #20
 969 0082 FFF7FEFF 		bl	OLED_WriteCommand
 970              	.LVL106:
 349:User_BSP/OLED.c **** 
 971              		.loc 1 349 5 view .LVU228
 972 0086 AF20     		movs	r0, #175
 973 0088 FFF7FEFF 		bl	OLED_WriteCommand
 974              	.LVL107:
 351:User_BSP/OLED.c ****     OLED_Update(); // жӣҙж–°жҳҫзӨәпјҢжё…еұҸпјҢйҳІжӯўеҲқе§ӢеҢ–еҗҺжңӘжҳҫзӨәеҶ…е®№ж—¶иҠұеұҸ
 975              		.loc 1 351 5 view .LVU229
 976 008c FFF7FEFF 		bl	OLED_Clear
 977              	.LVL108:
 352:User_BSP/OLED.c **** }
 978              		.loc 1 352 5 view .LVU230
 979 0090 FFF7FEFF 		bl	OLED_Update
 980              	.LVL109:
 353:User_BSP/OLED.c **** 
 981              		.loc 1 353 1 is_stmt 0 view .LVU231
 982 0094 08BD     		pop	{r3, pc}
 983              		.cfi_endproc
 984              	.LFE248:
 986              		.section	.text.OLED_ClearArea,"ax",%progbits
 987              		.align	1
 988              		.global	OLED_ClearArea
 989              		.syntax unified
 990              		.thumb
 991              		.thumb_func
 993              	OLED_ClearArea:
 994              	.LVL110:
 995              	.LFB256:
 523:User_BSP/OLED.c **** 
 524:User_BSP/OLED.c **** /**
 525:User_BSP/OLED.c ****  * @brief е°ҶOLEDжҳҫеӯҳж•°з»„йғЁеҲҶжё…йӣ¶
 526:User_BSP/OLED.c ****  * @param X жҢҮе®ҡеҢәеҹҹе·ҰдёҠи§’зҡ„жЁӘеқҗж ҮпјҢиҢғеӣҙпјҡ0-127
 527:User_BSP/OLED.c ****  * @param Y жҢҮе®ҡеҢәеҹҹе·ҰдёҠи§’зҡ„зәөеқҗж ҮпјҢиҢғеӣҙпјҡ0-63
 528:User_BSP/OLED.c ****  * @param Width жҢҮе®ҡеҢәеҹҹзҡ„е®ҪеәҰпјҢиҢғеӣҙпјҡ0-128
 529:User_BSP/OLED.c ****  * @param Height жҢҮе®ҡеҢәеҹҹзҡ„й«ҳеәҰпјҢиҢғеӣҙпјҡ0-64
 530:User_BSP/OLED.c ****  * @return ж— 
 531:User_BSP/OLED.c ****  * @note и°ғз”ЁжӯӨеҮҪж•°еҗҺпјҢиҰҒжғізңҹжӯЈең°е‘ҲзҺ°еңЁеұҸе№•дёҠпјҢиҝҳйңҖи°ғз”Ёжӣҙж–°еҮҪж•°
 532:User_BSP/OLED.c ****  */
 533:User_BSP/OLED.c **** void OLED_ClearArea(uint8_t X, uint8_t Y, uint8_t Width, uint8_t Height)
 534:User_BSP/OLED.c **** {
 996              		.loc 1 534 1 is_stmt 1 view -0
 997              		.cfi_startproc
 998              		@ args = 0, pretend = 0, frame = 0
 999              		@ frame_needed = 0, uses_anonymous_args = 0
 535:User_BSP/OLED.c ****     uint8_t i, j;
 1000              		.loc 1 535 5 view .LVU233
 536:User_BSP/OLED.c **** 
 537:User_BSP/OLED.c ****     /*еҸӮж•°жЈҖжҹҘпјҢдҝқиҜҒжҢҮе®ҡеҢәеҹҹдёҚдјҡи¶…еҮәеұҸе№•иҢғеӣҙ*/
 538:User_BSP/OLED.c ****     if (X > 127) { return; }
 1001              		.loc 1 538 5 view .LVU234
 1002              		.loc 1 538 8 is_stmt 0 view .LVU235
 1003 0000 10F0800F 		tst	r0, #128
 1004 0004 31D1     		bne	.L79
 534:User_BSP/OLED.c ****     uint8_t i, j;
 1005              		.loc 1 534 1 view .LVU236
ARM GAS  C:\Users\bubble\AppData\Local\Temp\ccRMWmKE.s 			page 29


 1006 0006 70B5     		push	{r4, r5, r6, lr}
 1007              	.LCFI17:
 1008              		.cfi_def_cfa_offset 16
 1009              		.cfi_offset 4, -16
 1010              		.cfi_offset 5, -12
 1011              		.cfi_offset 6, -8
 1012              		.cfi_offset 14, -4
 1013 0008 1446     		mov	r4, r2
 1014 000a 1D46     		mov	r5, r3
 539:User_BSP/OLED.c ****     if (Y > 63) { return; }
 1015              		.loc 1 539 5 is_stmt 1 view .LVU237
 1016              		.loc 1 539 8 is_stmt 0 view .LVU238
 1017 000c 3F29     		cmp	r1, #63
 1018 000e 2BD8     		bhi	.L70
 540:User_BSP/OLED.c ****     if (X + Width > 128) { Width = 128 - X; }
 1019              		.loc 1 540 5 is_stmt 1 view .LVU239
 1020              		.loc 1 540 11 is_stmt 0 view .LVU240
 1021 0010 1318     		adds	r3, r2, r0
 1022              	.LVL111:
 1023              		.loc 1 540 8 view .LVU241
 1024 0012 802B     		cmp	r3, #128
 1025 0014 02DD     		ble	.L72
 1026              		.loc 1 540 28 is_stmt 1 discriminator 1 view .LVU242
 1027              		.loc 1 540 34 is_stmt 0 discriminator 1 view .LVU243
 1028 0016 C0F18004 		rsb	r4, r0, #128
 1029 001a E4B2     		uxtb	r4, r4
 1030              	.LVL112:
 1031              	.L72:
 541:User_BSP/OLED.c ****     if (Y + Height > 64) { Height = 64 - Y; }
 1032              		.loc 1 541 5 is_stmt 1 view .LVU244
 1033              		.loc 1 541 11 is_stmt 0 view .LVU245
 1034 001c 0E46     		mov	r6, r1
 1035 001e 6B18     		adds	r3, r5, r1
 1036              		.loc 1 541 8 view .LVU246
 1037 0020 402B     		cmp	r3, #64
 1038 0022 1CDD     		ble	.L74
 1039              		.loc 1 541 28 is_stmt 1 discriminator 1 view .LVU247
 1040              		.loc 1 541 35 is_stmt 0 discriminator 1 view .LVU248
 1041 0024 C1F14005 		rsb	r5, r1, #64
 1042 0028 EDB2     		uxtb	r5, r5
 1043              	.LVL113:
 542:User_BSP/OLED.c **** 
 543:User_BSP/OLED.c ****     for (j = Y; j < Y + Height; j++) // йҒҚеҺҶжҢҮе®ҡйЎө
 1044              		.loc 1 543 5 is_stmt 1 discriminator 1 view .LVU249
 1045              		.loc 1 543 5 is_stmt 0 discriminator 1 view .LVU250
 1046 002a 18E0     		b	.L74
 1047              	.LVL114:
 1048              	.L75:
 544:User_BSP/OLED.c ****     {
 545:User_BSP/OLED.c ****         for (i = X; i < X + Width; i++) // йҒҚеҺҶжҢҮе®ҡеҲ—
 546:User_BSP/OLED.c ****         {
 547:User_BSP/OLED.c ****             OLED_DisplayBuf[j / 8][i] &= ~(0x01 << (j % 8)); // е°Ҷжҳҫеӯҳж•°з»„жҢҮе®ҡж•°жҚ®жё…йӣ¶
 1049              		.loc 1 547 13 is_stmt 1 discriminator 3 view .LVU251
 1050              		.loc 1 547 39 is_stmt 0 discriminator 3 view .LVU252
 1051 002c 4FEAD10E 		lsr	lr, r1, #3
 1052              		.loc 1 547 55 discriminator 3 view .LVU253
 1053 0030 01F00702 		and	r2, r1, #7
ARM GAS  C:\Users\bubble\AppData\Local\Temp\ccRMWmKE.s 			page 30


 1054              		.loc 1 547 49 discriminator 3 view .LVU254
 1055 0034 0123     		movs	r3, #1
 1056 0036 03FA02F2 		lsl	r2, r3, r2
 1057              		.loc 1 547 39 discriminator 3 view .LVU255
 1058 003a 0C4B     		ldr	r3, .L82
 1059 003c 03EBCE1E 		add	lr, r3, lr, lsl #7
 1060 0040 1EF80C30 		ldrb	r3, [lr, ip]	@ zero_extendqisi2
 1061 0044 23EA0203 		bic	r3, r3, r2
 1062 0048 0EF80C30 		strb	r3, [lr, ip]
 545:User_BSP/OLED.c ****         {
 1063              		.loc 1 545 36 is_stmt 1 discriminator 3 view .LVU256
 545:User_BSP/OLED.c ****         {
 1064              		.loc 1 545 37 is_stmt 0 discriminator 3 view .LVU257
 1065 004c 0CF1010C 		add	ip, ip, #1
 1066              	.LVL115:
 545:User_BSP/OLED.c ****         {
 1067              		.loc 1 545 37 discriminator 3 view .LVU258
 1068 0050 5FFA8CFC 		uxtb	ip, ip
 1069              	.LVL116:
 1070              	.L76:
 545:User_BSP/OLED.c ****         {
 1071              		.loc 1 545 21 is_stmt 1 discriminator 1 view .LVU259
 545:User_BSP/OLED.c ****         {
 1072              		.loc 1 545 27 is_stmt 0 discriminator 1 view .LVU260
 1073 0054 2318     		adds	r3, r4, r0
 545:User_BSP/OLED.c ****         {
 1074              		.loc 1 545 9 discriminator 1 view .LVU261
 1075 0056 9C45     		cmp	ip, r3
 1076 0058 E8DB     		blt	.L75
 543:User_BSP/OLED.c ****     {
 1077              		.loc 1 543 33 is_stmt 1 discriminator 2 view .LVU262
 543:User_BSP/OLED.c ****     {
 1078              		.loc 1 543 34 is_stmt 0 discriminator 2 view .LVU263
 1079 005a 0131     		adds	r1, r1, #1
 1080              	.LVL117:
 543:User_BSP/OLED.c ****     {
 1081              		.loc 1 543 34 discriminator 2 view .LVU264
 1082 005c C9B2     		uxtb	r1, r1
 1083              	.LVL118:
 1084              	.L74:
 543:User_BSP/OLED.c ****     {
 1085              		.loc 1 543 17 is_stmt 1 discriminator 1 view .LVU265
 543:User_BSP/OLED.c ****     {
 1086              		.loc 1 543 23 is_stmt 0 discriminator 1 view .LVU266
 1087 005e AB19     		adds	r3, r5, r6
 543:User_BSP/OLED.c ****     {
 1088              		.loc 1 543 5 discriminator 1 view .LVU267
 1089 0060 9942     		cmp	r1, r3
 1090 0062 01DA     		bge	.L70
 545:User_BSP/OLED.c ****         {
 1091              		.loc 1 545 16 view .LVU268
 1092 0064 8446     		mov	ip, r0
 1093 0066 F5E7     		b	.L76
 1094              	.LVL119:
 1095              	.L70:
 548:User_BSP/OLED.c ****         }
 549:User_BSP/OLED.c ****     }
ARM GAS  C:\Users\bubble\AppData\Local\Temp\ccRMWmKE.s 			page 31


 550:User_BSP/OLED.c **** }
 1096              		.loc 1 550 1 view .LVU269
 1097 0068 70BD     		pop	{r4, r5, r6, pc}
 1098              	.LVL120:
 1099              	.L79:
 1100              	.LCFI18:
 1101              		.cfi_def_cfa_offset 0
 1102              		.cfi_restore 4
 1103              		.cfi_restore 5
 1104              		.cfi_restore 6
 1105              		.cfi_restore 14
 1106              		.loc 1 550 1 view .LVU270
 1107 006a 7047     		bx	lr
 1108              	.L83:
 1109              		.align	2
 1110              	.L82:
 1111 006c 00000000 		.word	.LANCHOR0
 1112              		.cfi_endproc
 1113              	.LFE256:
 1115              		.section	.text.OLED_Reverse,"ax",%progbits
 1116              		.align	1
 1117              		.global	OLED_Reverse
 1118              		.syntax unified
 1119              		.thumb
 1120              		.thumb_func
 1122              	OLED_Reverse:
 1123              	.LFB257:
 551:User_BSP/OLED.c **** 
 552:User_BSP/OLED.c **** /**
 553:User_BSP/OLED.c ****  * @brief е°ҶOLEDжҳҫеӯҳж•°з»„е…ЁйғЁеҸ–еҸҚ
 554:User_BSP/OLED.c ****  * @param ж— 
 555:User_BSP/OLED.c ****  * @return ж— 
 556:User_BSP/OLED.c ****  * @note и°ғз”ЁжӯӨеҮҪж•°еҗҺпјҢиҰҒжғізңҹжӯЈең°е‘ҲзҺ°еңЁеұҸе№•дёҠпјҢиҝҳйңҖи°ғз”Ёжӣҙж–°еҮҪж•°
 557:User_BSP/OLED.c ****  */
 558:User_BSP/OLED.c **** void OLED_Reverse(void)
 559:User_BSP/OLED.c **** {
 1124              		.loc 1 559 1 is_stmt 1 view -0
 1125              		.cfi_startproc
 1126              		@ args = 0, pretend = 0, frame = 0
 1127              		@ frame_needed = 0, uses_anonymous_args = 0
 1128              		@ link register save eliminated.
 560:User_BSP/OLED.c ****     uint8_t i, j;
 1129              		.loc 1 560 5 view .LVU272
 561:User_BSP/OLED.c ****     for (j = 0; j < 8; j++) // йҒҚеҺҶ8йЎө
 1130              		.loc 1 561 5 view .LVU273
 1131              	.LVL121:
 1132              		.loc 1 561 12 is_stmt 0 view .LVU274
 1133 0000 0020     		movs	r0, #0
 1134              		.loc 1 561 5 view .LVU275
 1135 0002 0CE0     		b	.L85
 1136              	.LVL122:
 1137              	.L86:
 562:User_BSP/OLED.c ****     {
 563:User_BSP/OLED.c ****         for (i = 0; i < 128; i++) // йҒҚеҺҶ128еҲ—
 564:User_BSP/OLED.c ****         {
 565:User_BSP/OLED.c ****             OLED_DisplayBuf[j][i] ^= 0xFF; // е°Ҷжҳҫеӯҳж•°з»„ж•°жҚ®е…ЁйғЁеҸ–еҸҚ
 1138              		.loc 1 565 13 is_stmt 1 discriminator 3 view .LVU276
ARM GAS  C:\Users\bubble\AppData\Local\Temp\ccRMWmKE.s 			page 32


 1139              		.loc 1 565 35 is_stmt 0 discriminator 3 view .LVU277
 1140 0004 084A     		ldr	r2, .L90
 1141 0006 02EBC012 		add	r2, r2, r0, lsl #7
 1142 000a D15C     		ldrb	r1, [r2, r3]	@ zero_extendqisi2
 1143 000c C943     		mvns	r1, r1
 1144 000e D154     		strb	r1, [r2, r3]
 563:User_BSP/OLED.c ****         {
 1145              		.loc 1 563 30 is_stmt 1 discriminator 3 view .LVU278
 563:User_BSP/OLED.c ****         {
 1146              		.loc 1 563 31 is_stmt 0 discriminator 3 view .LVU279
 1147 0010 0133     		adds	r3, r3, #1
 1148              	.LVL123:
 563:User_BSP/OLED.c ****         {
 1149              		.loc 1 563 31 discriminator 3 view .LVU280
 1150 0012 DBB2     		uxtb	r3, r3
 1151              	.LVL124:
 1152              	.L87:
 563:User_BSP/OLED.c ****         {
 1153              		.loc 1 563 21 is_stmt 1 discriminator 1 view .LVU281
 563:User_BSP/OLED.c ****         {
 1154              		.loc 1 563 9 is_stmt 0 discriminator 1 view .LVU282
 1155 0014 13F0800F 		tst	r3, #128
 1156 0018 F4D0     		beq	.L86
 561:User_BSP/OLED.c ****     for (j = 0; j < 8; j++) // йҒҚеҺҶ8йЎө
 1157              		.loc 1 561 24 is_stmt 1 discriminator 2 view .LVU283
 561:User_BSP/OLED.c ****     for (j = 0; j < 8; j++) // йҒҚеҺҶ8йЎө
 1158              		.loc 1 561 25 is_stmt 0 discriminator 2 view .LVU284
 1159 001a 0130     		adds	r0, r0, #1
 1160              	.LVL125:
 561:User_BSP/OLED.c ****     for (j = 0; j < 8; j++) // йҒҚеҺҶ8йЎө
 1161              		.loc 1 561 25 discriminator 2 view .LVU285
 1162 001c C0B2     		uxtb	r0, r0
 1163              	.LVL126:
 1164              	.L85:
 561:User_BSP/OLED.c ****     for (j = 0; j < 8; j++) // йҒҚеҺҶ8йЎө
 1165              		.loc 1 561 17 is_stmt 1 discriminator 1 view .LVU286
 561:User_BSP/OLED.c ****     for (j = 0; j < 8; j++) // йҒҚеҺҶ8йЎө
 1166              		.loc 1 561 5 is_stmt 0 discriminator 1 view .LVU287
 1167 001e 0728     		cmp	r0, #7
 1168 0020 01D8     		bhi	.L89
 563:User_BSP/OLED.c ****         {
 1169              		.loc 1 563 16 view .LVU288
 1170 0022 0023     		movs	r3, #0
 1171 0024 F6E7     		b	.L87
 1172              	.L89:
 566:User_BSP/OLED.c ****         }
 567:User_BSP/OLED.c ****     }
 568:User_BSP/OLED.c **** }
 1173              		.loc 1 568 1 view .LVU289
 1174 0026 7047     		bx	lr
 1175              	.L91:
 1176              		.align	2
 1177              	.L90:
 1178 0028 00000000 		.word	.LANCHOR0
 1179              		.cfi_endproc
 1180              	.LFE257:
 1182              		.section	.text.OLED_ReverseArea,"ax",%progbits
ARM GAS  C:\Users\bubble\AppData\Local\Temp\ccRMWmKE.s 			page 33


 1183              		.align	1
 1184              		.global	OLED_ReverseArea
 1185              		.syntax unified
 1186              		.thumb
 1187              		.thumb_func
 1189              	OLED_ReverseArea:
 1190              	.LVL127:
 1191              	.LFB258:
 569:User_BSP/OLED.c **** 
 570:User_BSP/OLED.c **** /**
 571:User_BSP/OLED.c ****  * @brief е°ҶOLEDжҳҫеӯҳж•°з»„йғЁеҲҶеҸ–еҸҚ
 572:User_BSP/OLED.c ****  * @param X жҢҮе®ҡеҢәеҹҹе·ҰдёҠи§’зҡ„жЁӘеқҗж ҮпјҢиҢғеӣҙпјҡ0-127
 573:User_BSP/OLED.c ****  * @param Y жҢҮе®ҡеҢәеҹҹе·ҰдёҠи§’зҡ„зәөеқҗж ҮпјҢиҢғеӣҙпјҡ0-63
 574:User_BSP/OLED.c ****  * @param Width жҢҮе®ҡеҢәеҹҹзҡ„е®ҪеәҰпјҢиҢғеӣҙпјҡ0-128
 575:User_BSP/OLED.c ****  * @param Height жҢҮе®ҡеҢәеҹҹзҡ„й«ҳеәҰпјҢиҢғеӣҙпјҡ0-64
 576:User_BSP/OLED.c ****  * @return ж— 
 577:User_BSP/OLED.c ****  * @note и°ғз”ЁжӯӨеҮҪж•°еҗҺпјҢиҰҒжғізңҹжӯЈең°е‘ҲзҺ°еңЁеұҸе№•дёҠпјҢиҝҳйңҖи°ғз”Ёжӣҙж–°еҮҪж•°
 578:User_BSP/OLED.c ****  */
 579:User_BSP/OLED.c **** void OLED_ReverseArea(uint8_t X, uint8_t Y, uint8_t Width, uint8_t Height)
 580:User_BSP/OLED.c **** {
 1192              		.loc 1 580 1 is_stmt 1 view -0
 1193              		.cfi_startproc
 1194              		@ args = 0, pretend = 0, frame = 0
 1195              		@ frame_needed = 0, uses_anonymous_args = 0
 581:User_BSP/OLED.c ****     uint8_t i, j;
 1196              		.loc 1 581 5 view .LVU291
 582:User_BSP/OLED.c **** 
 583:User_BSP/OLED.c ****     /*еҸӮж•°жЈҖжҹҘпјҢдҝқиҜҒжҢҮе®ҡеҢәеҹҹдёҚдјҡи¶…еҮәеұҸе№•иҢғеӣҙ*/
 584:User_BSP/OLED.c ****     if (X > 127) { return; }
 1197              		.loc 1 584 5 view .LVU292
 1198              		.loc 1 584 8 is_stmt 0 view .LVU293
 1199 0000 10F0800F 		tst	r0, #128
 1200 0004 30D1     		bne	.L101
 580:User_BSP/OLED.c ****     uint8_t i, j;
 1201              		.loc 1 580 1 view .LVU294
 1202 0006 70B5     		push	{r4, r5, r6, lr}
 1203              	.LCFI19:
 1204              		.cfi_def_cfa_offset 16
 1205              		.cfi_offset 4, -16
 1206              		.cfi_offset 5, -12
 1207              		.cfi_offset 6, -8
 1208              		.cfi_offset 14, -4
 1209 0008 1446     		mov	r4, r2
 1210 000a 1D46     		mov	r5, r3
 585:User_BSP/OLED.c ****     if (Y > 63) { return; }
 1211              		.loc 1 585 5 is_stmt 1 view .LVU295
 1212              		.loc 1 585 8 is_stmt 0 view .LVU296
 1213 000c 3F29     		cmp	r1, #63
 1214 000e 2AD8     		bhi	.L92
 586:User_BSP/OLED.c ****     if (X + Width > 128) { Width = 128 - X; }
 1215              		.loc 1 586 5 is_stmt 1 view .LVU297
 1216              		.loc 1 586 11 is_stmt 0 view .LVU298
 1217 0010 1318     		adds	r3, r2, r0
 1218              	.LVL128:
 1219              		.loc 1 586 8 view .LVU299
 1220 0012 802B     		cmp	r3, #128
 1221 0014 02DD     		ble	.L94
ARM GAS  C:\Users\bubble\AppData\Local\Temp\ccRMWmKE.s 			page 34


 1222              		.loc 1 586 28 is_stmt 1 discriminator 1 view .LVU300
 1223              		.loc 1 586 34 is_stmt 0 discriminator 1 view .LVU301
 1224 0016 C0F18004 		rsb	r4, r0, #128
 1225 001a E4B2     		uxtb	r4, r4
 1226              	.LVL129:
 1227              	.L94:
 587:User_BSP/OLED.c ****     if (Y + Height > 64) { Height = 64 - Y; }
 1228              		.loc 1 587 5 is_stmt 1 view .LVU302
 1229              		.loc 1 587 11 is_stmt 0 view .LVU303
 1230 001c 0E46     		mov	r6, r1
 1231 001e 6B18     		adds	r3, r5, r1
 1232              		.loc 1 587 8 view .LVU304
 1233 0020 402B     		cmp	r3, #64
 1234 0022 1BDD     		ble	.L96
 1235              		.loc 1 587 28 is_stmt 1 discriminator 1 view .LVU305
 1236              		.loc 1 587 35 is_stmt 0 discriminator 1 view .LVU306
 1237 0024 C1F14005 		rsb	r5, r1, #64
 1238 0028 EDB2     		uxtb	r5, r5
 1239              	.LVL130:
 588:User_BSP/OLED.c **** 
 589:User_BSP/OLED.c ****     for (j = Y; j < Y + Height; j++) // йҒҚеҺҶжҢҮе®ҡйЎө
 1240              		.loc 1 589 5 is_stmt 1 discriminator 1 view .LVU307
 1241              		.loc 1 589 5 is_stmt 0 discriminator 1 view .LVU308
 1242 002a 17E0     		b	.L96
 1243              	.LVL131:
 1244              	.L97:
 590:User_BSP/OLED.c ****     {
 591:User_BSP/OLED.c ****         for (i = X; i < X + Width; i++) // йҒҚеҺҶжҢҮе®ҡеҲ—
 592:User_BSP/OLED.c ****         {
 593:User_BSP/OLED.c ****             OLED_DisplayBuf[j / 8][i] ^= 0x01 << (j % 8); // е°Ҷжҳҫеӯҳж•°з»„жҢҮе®ҡж•°жҚ®еҸ–еҸҚ
 1245              		.loc 1 593 13 is_stmt 1 discriminator 3 view .LVU309
 1246              		.loc 1 593 39 is_stmt 0 discriminator 3 view .LVU310
 1247 002c 4FEAD10E 		lsr	lr, r1, #3
 1248              		.loc 1 593 53 discriminator 3 view .LVU311
 1249 0030 01F00702 		and	r2, r1, #7
 1250              		.loc 1 593 47 discriminator 3 view .LVU312
 1251 0034 0123     		movs	r3, #1
 1252 0036 03FA02F2 		lsl	r2, r3, r2
 1253              		.loc 1 593 39 discriminator 3 view .LVU313
 1254 003a 0C4B     		ldr	r3, .L104
 1255 003c 03EBCE1E 		add	lr, r3, lr, lsl #7
 1256 0040 1EF80C30 		ldrb	r3, [lr, ip]	@ zero_extendqisi2
 1257 0044 5340     		eors	r3, r3, r2
 1258 0046 0EF80C30 		strb	r3, [lr, ip]
 591:User_BSP/OLED.c ****         {
 1259              		.loc 1 591 36 is_stmt 1 discriminator 3 view .LVU314
 591:User_BSP/OLED.c ****         {
 1260              		.loc 1 591 37 is_stmt 0 discriminator 3 view .LVU315
 1261 004a 0CF1010C 		add	ip, ip, #1
 1262              	.LVL132:
 591:User_BSP/OLED.c ****         {
 1263              		.loc 1 591 37 discriminator 3 view .LVU316
 1264 004e 5FFA8CFC 		uxtb	ip, ip
 1265              	.LVL133:
 1266              	.L98:
 591:User_BSP/OLED.c ****         {
 1267              		.loc 1 591 21 is_stmt 1 discriminator 1 view .LVU317
ARM GAS  C:\Users\bubble\AppData\Local\Temp\ccRMWmKE.s 			page 35


 591:User_BSP/OLED.c ****         {
 1268              		.loc 1 591 27 is_stmt 0 discriminator 1 view .LVU318
 1269 0052 2318     		adds	r3, r4, r0
 591:User_BSP/OLED.c ****         {
 1270              		.loc 1 591 9 discriminator 1 view .LVU319
 1271 0054 9C45     		cmp	ip, r3
 1272 0056 E9DB     		blt	.L97
 589:User_BSP/OLED.c ****     {
 1273              		.loc 1 589 33 is_stmt 1 discriminator 2 view .LVU320
 589:User_BSP/OLED.c ****     {
 1274              		.loc 1 589 34 is_stmt 0 discriminator 2 view .LVU321
 1275 0058 0131     		adds	r1, r1, #1
 1276              	.LVL134:
 589:User_BSP/OLED.c ****     {
 1277              		.loc 1 589 34 discriminator 2 view .LVU322
 1278 005a C9B2     		uxtb	r1, r1
 1279              	.LVL135:
 1280              	.L96:
 589:User_BSP/OLED.c ****     {
 1281              		.loc 1 589 17 is_stmt 1 discriminator 1 view .LVU323
 589:User_BSP/OLED.c ****     {
 1282              		.loc 1 589 23 is_stmt 0 discriminator 1 view .LVU324
 1283 005c AB19     		adds	r3, r5, r6
 589:User_BSP/OLED.c ****     {
 1284              		.loc 1 589 5 discriminator 1 view .LVU325
 1285 005e 9942     		cmp	r1, r3
 1286 0060 01DA     		bge	.L92
 591:User_BSP/OLED.c ****         {
 1287              		.loc 1 591 16 view .LVU326
 1288 0062 8446     		mov	ip, r0
 1289 0064 F5E7     		b	.L98
 1290              	.LVL136:
 1291              	.L92:
 594:User_BSP/OLED.c ****         }
 595:User_BSP/OLED.c ****     }
 596:User_BSP/OLED.c **** }
 1292              		.loc 1 596 1 view .LVU327
 1293 0066 70BD     		pop	{r4, r5, r6, pc}
 1294              	.LVL137:
 1295              	.L101:
 1296              	.LCFI20:
 1297              		.cfi_def_cfa_offset 0
 1298              		.cfi_restore 4
 1299              		.cfi_restore 5
 1300              		.cfi_restore 6
 1301              		.cfi_restore 14
 1302              		.loc 1 596 1 view .LVU328
 1303 0068 7047     		bx	lr
 1304              	.L105:
 1305 006a 00BF     		.align	2
 1306              	.L104:
 1307 006c 00000000 		.word	.LANCHOR0
 1308              		.cfi_endproc
 1309              	.LFE258:
 1311              		.section	.text.OLED_ShowImage,"ax",%progbits
 1312              		.align	1
 1313              		.global	OLED_ShowImage
ARM GAS  C:\Users\bubble\AppData\Local\Temp\ccRMWmKE.s 			page 36


 1314              		.syntax unified
 1315              		.thumb
 1316              		.thumb_func
 1318              	OLED_ShowImage:
 1319              	.LVL138:
 1320              	.LFB266:
 597:User_BSP/OLED.c **** 
 598:User_BSP/OLED.c **** /**
 599:User_BSP/OLED.c ****  * @brief OLEDжҳҫзӨәдёҖдёӘеӯ—з¬Ұ
 600:User_BSP/OLED.c ****  * @param X жҢҮе®ҡеӯ—з¬Ұе·ҰдёҠи§’зҡ„жЁӘеқҗж ҮпјҢиҢғеӣҙпјҡ0-127
 601:User_BSP/OLED.c ****  * @param Y жҢҮе®ҡеӯ—з¬Ұе·ҰдёҠи§’зҡ„зәөеқҗж ҮпјҢиҢғеӣҙпјҡ0-63
 602:User_BSP/OLED.c ****  * @param Char жҢҮе®ҡиҰҒжҳҫзӨәзҡ„еӯ—з¬ҰпјҢиҢғеӣҙпјҡASCIIз ҒеҸҜи§Ғеӯ—з¬Ұ
 603:User_BSP/OLED.c ****  * @param FontSize жҢҮе®ҡеӯ—дҪ“еӨ§е°Ҹ
 604:User_BSP/OLED.c ****  *           иҢғеӣҙпјҡOLED_8X16		е®Ҫ8еғҸзҙ пјҢй«ҳ16еғҸзҙ 
 605:User_BSP/OLED.c ****  *                 OLED_6X8		е®Ҫ6еғҸзҙ пјҢй«ҳ8еғҸзҙ 
 606:User_BSP/OLED.c ****  * @return ж— 
 607:User_BSP/OLED.c ****  * @note и°ғз”ЁжӯӨеҮҪж•°еҗҺпјҢиҰҒжғізңҹжӯЈең°е‘ҲзҺ°еңЁеұҸе№•дёҠпјҢиҝҳйңҖи°ғз”Ёжӣҙж–°еҮҪж•°
 608:User_BSP/OLED.c ****  */
 609:User_BSP/OLED.c **** void OLED_ShowChar(uint8_t X, uint8_t Y, char Char, uint8_t FontSize)
 610:User_BSP/OLED.c **** {
 611:User_BSP/OLED.c ****     if (FontSize == OLED_8X16) // еӯ—дҪ“дёәе®Ҫ8еғҸзҙ пјҢй«ҳ16еғҸзҙ 
 612:User_BSP/OLED.c ****     {
 613:User_BSP/OLED.c ****         /*е°ҶASCIIеӯ—жЁЎеә“OLED_F8x16зҡ„жҢҮе®ҡж•°жҚ®д»Ҙ8*16зҡ„еӣҫеғҸж јејҸжҳҫзӨә*/
 614:User_BSP/OLED.c ****         OLED_ShowImage(X, Y, 8, 16, OLED_F8x16[Char - ' ']);
 615:User_BSP/OLED.c ****     } else if (FontSize == OLED_6X8) // еӯ—дҪ“дёәе®Ҫ6еғҸзҙ пјҢй«ҳ8еғҸзҙ 
 616:User_BSP/OLED.c ****     {
 617:User_BSP/OLED.c ****         /*е°ҶASCIIеӯ—жЁЎеә“OLED_F6x8зҡ„жҢҮе®ҡж•°жҚ®д»Ҙ6*8зҡ„еӣҫеғҸж јејҸжҳҫзӨә*/
 618:User_BSP/OLED.c ****         OLED_ShowImage(X, Y, 6, 8, OLED_F6x8[Char - ' ']);
 619:User_BSP/OLED.c ****     }
 620:User_BSP/OLED.c **** }
 621:User_BSP/OLED.c **** 
 622:User_BSP/OLED.c **** /**
 623:User_BSP/OLED.c ****  * @brief OLEDжҳҫзӨәеӯ—з¬ҰдёІ
 624:User_BSP/OLED.c ****  * @param X жҢҮе®ҡеӯ—з¬ҰдёІе·ҰдёҠи§’зҡ„жЁӘеқҗж ҮпјҢиҢғеӣҙпјҡ0-127
 625:User_BSP/OLED.c ****  * @param Y жҢҮе®ҡеӯ—з¬ҰдёІе·ҰдёҠи§’зҡ„зәөеқҗж ҮпјҢиҢғеӣҙпјҡ0-63
 626:User_BSP/OLED.c ****  * @param String жҢҮе®ҡиҰҒжҳҫзӨәзҡ„еӯ—з¬ҰдёІпјҢиҢғеӣҙпјҡASCIIз ҒеҸҜи§Ғеӯ—з¬Ұз»„жҲҗзҡ„еӯ—з¬ҰдёІ
 627:User_BSP/OLED.c ****  * @param FontSize жҢҮе®ҡеӯ—дҪ“еӨ§е°Ҹ
 628:User_BSP/OLED.c ****  *           иҢғеӣҙпјҡOLED_8X16		е®Ҫ8еғҸзҙ пјҢй«ҳ16еғҸзҙ 
 629:User_BSP/OLED.c ****  *                 OLED_6X8		е®Ҫ6еғҸзҙ пјҢй«ҳ8еғҸзҙ 
 630:User_BSP/OLED.c ****  * @return ж— 
 631:User_BSP/OLED.c ****  * @note и°ғз”ЁжӯӨеҮҪж•°еҗҺпјҢиҰҒжғізңҹжӯЈең°е‘ҲзҺ°еңЁеұҸе№•дёҠпјҢиҝҳйңҖи°ғз”Ёжӣҙж–°еҮҪж•°
 632:User_BSP/OLED.c ****  */
 633:User_BSP/OLED.c **** void OLED_ShowString(uint8_t X, uint8_t Y, char *String, uint8_t FontSize)
 634:User_BSP/OLED.c **** {
 635:User_BSP/OLED.c ****     uint8_t i;
 636:User_BSP/OLED.c ****     for (i = 0; String[i] != '\0'; i++) // йҒҚеҺҶеӯ—з¬ҰдёІзҡ„жҜҸдёӘеӯ—з¬Ұ
 637:User_BSP/OLED.c ****     {
 638:User_BSP/OLED.c ****         /*и°ғз”ЁOLED_ShowCharеҮҪж•°пјҢдҫқж¬ЎжҳҫзӨәжҜҸдёӘеӯ—з¬Ұ*/
 639:User_BSP/OLED.c ****         OLED_ShowChar(X + i * FontSize, Y, String[i], FontSize);
 640:User_BSP/OLED.c ****     }
 641:User_BSP/OLED.c **** }
 642:User_BSP/OLED.c **** 
 643:User_BSP/OLED.c **** /**
 644:User_BSP/OLED.c ****  * @brief OLEDжҳҫзӨәж•°еӯ—пјҲеҚҒиҝӣеҲ¶пјҢжӯЈж•ҙж•°пјү
 645:User_BSP/OLED.c ****  * @param X жҢҮе®ҡж•°еӯ—е·ҰдёҠи§’зҡ„жЁӘеқҗж ҮпјҢиҢғеӣҙпјҡ0-127
 646:User_BSP/OLED.c ****  * @param Y жҢҮе®ҡж•°еӯ—е·ҰдёҠи§’зҡ„зәөеқҗж ҮпјҢиҢғеӣҙпјҡ0-63
 647:User_BSP/OLED.c ****  * @param Number жҢҮе®ҡиҰҒжҳҫзӨәзҡ„ж•°еӯ—пјҢиҢғеӣҙпјҡ0-4294967295
ARM GAS  C:\Users\bubble\AppData\Local\Temp\ccRMWmKE.s 			page 37


 648:User_BSP/OLED.c ****  * @param Length жҢҮе®ҡж•°еӯ—зҡ„й•ҝеәҰпјҢиҢғеӣҙпјҡ0-10
 649:User_BSP/OLED.c ****  * @param FontSize жҢҮе®ҡеӯ—дҪ“еӨ§е°Ҹ
 650:User_BSP/OLED.c ****  *           иҢғеӣҙпјҡOLED_8X16		е®Ҫ8еғҸзҙ пјҢй«ҳ16еғҸзҙ 
 651:User_BSP/OLED.c ****  *                 OLED_6X8		е®Ҫ6еғҸзҙ пјҢй«ҳ8еғҸзҙ 
 652:User_BSP/OLED.c ****  * @return ж— 
 653:User_BSP/OLED.c ****  * @note и°ғз”ЁжӯӨеҮҪж•°еҗҺпјҢиҰҒжғізңҹжӯЈең°е‘ҲзҺ°еңЁеұҸе№•дёҠпјҢиҝҳйңҖи°ғз”Ёжӣҙж–°еҮҪж•°
 654:User_BSP/OLED.c ****  */
 655:User_BSP/OLED.c **** void OLED_ShowNum(uint8_t X, uint8_t Y, uint32_t Number, uint8_t Length, uint8_t FontSize)
 656:User_BSP/OLED.c **** {
 657:User_BSP/OLED.c ****     uint8_t i;
 658:User_BSP/OLED.c ****     for (i = 0; i < Length; i++) // йҒҚеҺҶж•°еӯ—зҡ„жҜҸдёҖдҪҚ
 659:User_BSP/OLED.c ****     {
 660:User_BSP/OLED.c ****         /*и°ғз”ЁOLED_ShowCharеҮҪж•°пјҢдҫқж¬ЎжҳҫзӨәжҜҸдёӘж•°еӯ—*/
 661:User_BSP/OLED.c ****         /*Number / OLED_Pow(10, Length - i - 1) % 10 еҸҜд»ҘеҚҒиҝӣеҲ¶жҸҗеҸ–ж•°еӯ—зҡ„жҜҸдёҖдҪҚ*/
 662:User_BSP/OLED.c ****         /*+ '0' еҸҜе°Ҷж•°еӯ—иҪ¬жҚўдёәеӯ—з¬Ұж јејҸ*/
 663:User_BSP/OLED.c ****         OLED_ShowChar(X + i * FontSize, Y, Number / OLED_Pow(10, Length - i - 1) % 10 + '0', FontSi
 664:User_BSP/OLED.c ****     }
 665:User_BSP/OLED.c **** }
 666:User_BSP/OLED.c **** 
 667:User_BSP/OLED.c **** /**
 668:User_BSP/OLED.c ****  * @brief OLEDжҳҫзӨәжңүз¬ҰеҸ·ж•°еӯ—пјҲеҚҒиҝӣеҲ¶пјҢж•ҙж•°пјү
 669:User_BSP/OLED.c ****  * @param X жҢҮе®ҡж•°еӯ—е·ҰдёҠи§’зҡ„жЁӘеқҗж ҮпјҢиҢғеӣҙпјҡ0-127
 670:User_BSP/OLED.c ****  * @param Y жҢҮе®ҡж•°еӯ—е·ҰдёҠи§’зҡ„зәөеқҗж ҮпјҢиҢғеӣҙпјҡ0-63
 671:User_BSP/OLED.c ****  * @param Number жҢҮе®ҡиҰҒжҳҫзӨәзҡ„ж•°еӯ—пјҢиҢғеӣҙпјҡ-2147483648-2147483647
 672:User_BSP/OLED.c ****  * @param Length жҢҮе®ҡж•°еӯ—зҡ„й•ҝеәҰпјҢиҢғеӣҙпјҡ0-10
 673:User_BSP/OLED.c ****  * @param FontSize жҢҮе®ҡеӯ—дҪ“еӨ§е°Ҹ
 674:User_BSP/OLED.c ****  *           иҢғеӣҙпјҡOLED_8X16		е®Ҫ8еғҸзҙ пјҢй«ҳ16еғҸзҙ 
 675:User_BSP/OLED.c ****  *                 OLED_6X8		е®Ҫ6еғҸзҙ пјҢй«ҳ8еғҸзҙ 
 676:User_BSP/OLED.c ****  * @return ж— 
 677:User_BSP/OLED.c ****  * @note и°ғз”ЁжӯӨеҮҪж•°еҗҺпјҢиҰҒжғізңҹжӯЈең°е‘ҲзҺ°еңЁеұҸе№•дёҠпјҢиҝҳйңҖи°ғз”Ёжӣҙж–°еҮҪж•°
 678:User_BSP/OLED.c ****  */
 679:User_BSP/OLED.c **** void OLED_ShowSignedNum(uint8_t X, uint8_t Y, int32_t Number, uint8_t Length, uint8_t FontSize)
 680:User_BSP/OLED.c **** {
 681:User_BSP/OLED.c ****     uint8_t i;
 682:User_BSP/OLED.c ****     uint32_t Number1;
 683:User_BSP/OLED.c **** 
 684:User_BSP/OLED.c ****     if (Number >= 0) // ж•°еӯ—еӨ§дәҺзӯүдәҺ0
 685:User_BSP/OLED.c ****     {
 686:User_BSP/OLED.c ****         OLED_ShowChar(X, Y, '+', FontSize); // жҳҫзӨә+еҸ·
 687:User_BSP/OLED.c ****         Number1 = Number;                   // Number1зӣҙжҺҘзӯүдәҺNumber
 688:User_BSP/OLED.c ****     } else                                  // ж•°еӯ—е°ҸдәҺ0
 689:User_BSP/OLED.c ****     {
 690:User_BSP/OLED.c ****         OLED_ShowChar(X, Y, '-', FontSize); // жҳҫзӨә-еҸ·
 691:User_BSP/OLED.c ****         Number1 = -Number;                  // Number1зӯүдәҺNumberеҸ–иҙҹ
 692:User_BSP/OLED.c ****     }
 693:User_BSP/OLED.c **** 
 694:User_BSP/OLED.c ****     for (i = 0; i < Length; i++) // йҒҚеҺҶж•°еӯ—зҡ„жҜҸдёҖдҪҚ
 695:User_BSP/OLED.c ****     {
 696:User_BSP/OLED.c ****         /*и°ғз”ЁOLED_ShowCharеҮҪж•°пјҢдҫқж¬ЎжҳҫзӨәжҜҸдёӘж•°еӯ—*/
 697:User_BSP/OLED.c ****         /*Number1 / OLED_Pow(10, Length - i - 1) % 10 еҸҜд»ҘеҚҒиҝӣеҲ¶жҸҗеҸ–ж•°еӯ—зҡ„жҜҸдёҖдҪҚ*/
 698:User_BSP/OLED.c ****         /*+ '0' еҸҜе°Ҷж•°еӯ—иҪ¬жҚўдёәеӯ—з¬Ұж јејҸ*/
 699:User_BSP/OLED.c ****         OLED_ShowChar(X + (i + 1) * FontSize, Y, Number1 / OLED_Pow(10, Length - i - 1) % 10 + '0',
 700:User_BSP/OLED.c ****     }
 701:User_BSP/OLED.c **** }
 702:User_BSP/OLED.c **** 
 703:User_BSP/OLED.c **** /**
 704:User_BSP/OLED.c ****  * @brief OLEDжҳҫзӨәеҚҒе…ӯиҝӣеҲ¶ж•°еӯ—пјҲеҚҒе…ӯиҝӣеҲ¶пјҢжӯЈж•ҙж•°пјү
ARM GAS  C:\Users\bubble\AppData\Local\Temp\ccRMWmKE.s 			page 38


 705:User_BSP/OLED.c ****  * @param X жҢҮе®ҡж•°еӯ—е·ҰдёҠи§’зҡ„жЁӘеқҗж ҮпјҢиҢғеӣҙпјҡ0~127
 706:User_BSP/OLED.c ****  * @param Y жҢҮе®ҡж•°еӯ—е·ҰдёҠи§’зҡ„зәөеқҗж ҮпјҢиҢғеӣҙпјҡ0~63
 707:User_BSP/OLED.c ****  * @param Number жҢҮе®ҡиҰҒжҳҫзӨәзҡ„ж•°еӯ—пјҢиҢғеӣҙпјҡ0x00000000~0xFFFFFFFF
 708:User_BSP/OLED.c ****  * @param Length жҢҮе®ҡж•°еӯ—зҡ„й•ҝеәҰпјҢиҢғеӣҙпјҡ0~8
 709:User_BSP/OLED.c ****  * @param FontSize жҢҮе®ҡеӯ—дҪ“еӨ§е°Ҹ
 710:User_BSP/OLED.c ****  *           иҢғеӣҙпјҡOLED_8X16		е®Ҫ8еғҸзҙ пјҢй«ҳ16еғҸзҙ 
 711:User_BSP/OLED.c ****  *                 OLED_6X8		е®Ҫ6еғҸзҙ пјҢй«ҳ8еғҸзҙ 
 712:User_BSP/OLED.c ****  * @return ж— 
 713:User_BSP/OLED.c ****  * @note и°ғз”ЁжӯӨеҮҪж•°еҗҺпјҢиҰҒжғізңҹжӯЈең°е‘ҲзҺ°еңЁеұҸе№•дёҠпјҢиҝҳйңҖи°ғз”Ёжӣҙж–°еҮҪж•°
 714:User_BSP/OLED.c ****  */
 715:User_BSP/OLED.c **** void OLED_ShowHexNum(uint8_t X, uint8_t Y, uint32_t Number, uint8_t Length, uint8_t FontSize)
 716:User_BSP/OLED.c **** {
 717:User_BSP/OLED.c ****     uint8_t i, SingleNumber;
 718:User_BSP/OLED.c ****     for (i = 0; i < Length; i++) // йҒҚеҺҶж•°еӯ—зҡ„жҜҸдёҖдҪҚ
 719:User_BSP/OLED.c ****     {
 720:User_BSP/OLED.c ****         /*д»ҘеҚҒе…ӯиҝӣеҲ¶жҸҗеҸ–ж•°еӯ—зҡ„жҜҸдёҖдҪҚ*/
 721:User_BSP/OLED.c ****         SingleNumber = Number / OLED_Pow(16, Length - i - 1) % 16;
 722:User_BSP/OLED.c **** 
 723:User_BSP/OLED.c ****         if (SingleNumber < 10) // еҚ•дёӘж•°еӯ—е°ҸдәҺ10
 724:User_BSP/OLED.c ****         {
 725:User_BSP/OLED.c ****             /*и°ғз”ЁOLED_ShowCharеҮҪж•°пјҢжҳҫзӨәжӯӨж•°еӯ—*/
 726:User_BSP/OLED.c ****             /*+ '0' еҸҜе°Ҷж•°еӯ—иҪ¬жҚўдёәеӯ—з¬Ұж јејҸ*/
 727:User_BSP/OLED.c ****             OLED_ShowChar(X + i * FontSize, Y, SingleNumber + '0', FontSize);
 728:User_BSP/OLED.c ****         } else // еҚ•дёӘж•°еӯ—еӨ§дәҺ10
 729:User_BSP/OLED.c ****         {
 730:User_BSP/OLED.c ****             /*и°ғз”ЁOLED_ShowCharеҮҪж•°пјҢжҳҫзӨәжӯӨж•°еӯ—*/
 731:User_BSP/OLED.c ****             /*+ 'A' еҸҜе°Ҷж•°еӯ—иҪ¬жҚўдёәд»ҺAејҖе§Ӣзҡ„еҚҒе…ӯиҝӣеҲ¶еӯ—з¬Ұ*/
 732:User_BSP/OLED.c ****             OLED_ShowChar(X + i * FontSize, Y, SingleNumber - 10 + 'A', FontSize);
 733:User_BSP/OLED.c ****         }
 734:User_BSP/OLED.c ****     }
 735:User_BSP/OLED.c **** }
 736:User_BSP/OLED.c **** 
 737:User_BSP/OLED.c **** /**
 738:User_BSP/OLED.c ****  * @brief OLEDжҳҫзӨәдәҢиҝӣеҲ¶ж•°еӯ—пјҲдәҢиҝӣеҲ¶пјҢжӯЈж•ҙж•°пјү
 739:User_BSP/OLED.c ****  * @param X жҢҮе®ҡж•°еӯ—е·ҰдёҠи§’зҡ„жЁӘеқҗж ҮпјҢиҢғеӣҙпјҡ0~127
 740:User_BSP/OLED.c ****  * @param Y жҢҮе®ҡж•°еӯ—е·ҰдёҠи§’зҡ„зәөеқҗж ҮпјҢиҢғеӣҙпјҡ0~63
 741:User_BSP/OLED.c ****  * @param Number жҢҮе®ҡиҰҒжҳҫзӨәзҡ„ж•°еӯ—пјҢиҢғеӣҙпјҡ0x00000000~0xFFFFFFFF
 742:User_BSP/OLED.c ****  * @param Length жҢҮе®ҡж•°еӯ—зҡ„й•ҝеәҰпјҢиҢғеӣҙпјҡ0~16
 743:User_BSP/OLED.c ****  * @param FontSize жҢҮе®ҡеӯ—дҪ“еӨ§е°Ҹ
 744:User_BSP/OLED.c ****  *           иҢғеӣҙпјҡOLED_8X16		е®Ҫ8еғҸзҙ пјҢй«ҳ16еғҸзҙ 
 745:User_BSP/OLED.c ****  *                 OLED_6X8		е®Ҫ6еғҸзҙ пјҢй«ҳ8еғҸзҙ 
 746:User_BSP/OLED.c ****  * @return ж— 
 747:User_BSP/OLED.c ****  * @note и°ғз”ЁжӯӨеҮҪж•°еҗҺпјҢиҰҒжғізңҹжӯЈең°е‘ҲзҺ°еңЁеұҸе№•дёҠпјҢиҝҳйңҖи°ғз”Ёжӣҙж–°еҮҪж•°
 748:User_BSP/OLED.c ****  */
 749:User_BSP/OLED.c **** void OLED_ShowBinNum(uint8_t X, uint8_t Y, uint32_t Number, uint8_t Length, uint8_t FontSize)
 750:User_BSP/OLED.c **** {
 751:User_BSP/OLED.c ****     uint8_t i;
 752:User_BSP/OLED.c ****     for (i = 0; i < Length; i++) // йҒҚеҺҶж•°еӯ—зҡ„жҜҸдёҖдҪҚ
 753:User_BSP/OLED.c ****     {
 754:User_BSP/OLED.c ****         /*и°ғз”ЁOLED_ShowCharеҮҪж•°пјҢдҫқж¬ЎжҳҫзӨәжҜҸдёӘж•°еӯ—*/
 755:User_BSP/OLED.c ****         /*Number / OLED_Pow(2, Length - i - 1) % 2 еҸҜд»ҘдәҢиҝӣеҲ¶жҸҗеҸ–ж•°еӯ—зҡ„жҜҸдёҖдҪҚ*/
 756:User_BSP/OLED.c ****         /*+ '0' еҸҜе°Ҷж•°еӯ—иҪ¬жҚўдёәеӯ—з¬Ұж јејҸ*/
 757:User_BSP/OLED.c ****         OLED_ShowChar(X + i * FontSize, Y, Number / OLED_Pow(2, Length - i - 1) % 2 + '0', FontSize
 758:User_BSP/OLED.c ****     }
 759:User_BSP/OLED.c **** }
 760:User_BSP/OLED.c **** 
 761:User_BSP/OLED.c **** /**
ARM GAS  C:\Users\bubble\AppData\Local\Temp\ccRMWmKE.s 			page 39


 762:User_BSP/OLED.c ****  * @brief OLEDжҳҫзӨәжө®зӮ№ж•°еӯ—пјҲеҚҒиҝӣеҲ¶пјҢе°Ҹж•°пјү
 763:User_BSP/OLED.c ****  * @param X жҢҮе®ҡж•°еӯ—е·ҰдёҠи§’зҡ„жЁӘеқҗж ҮпјҢиҢғеӣҙпјҡ0-127
 764:User_BSP/OLED.c ****  * @param Y жҢҮе®ҡж•°еӯ—е·ҰдёҠи§’зҡ„зәөеқҗж ҮпјҢиҢғеӣҙпјҡ0-63
 765:User_BSP/OLED.c ****  * @param Number жҢҮе®ҡиҰҒжҳҫзӨәзҡ„ж•°еӯ—пјҢиҢғеӣҙпјҡ-4294967295.0-4294967295.0
 766:User_BSP/OLED.c ****  * @param IntLength жҢҮе®ҡж•°еӯ—зҡ„ж•ҙж•°дҪҚй•ҝеәҰпјҢиҢғеӣҙпјҡ0-10
 767:User_BSP/OLED.c ****  * @param FraLength жҢҮе®ҡж•°еӯ—зҡ„е°Ҹж•°дҪҚй•ҝеәҰпјҢиҢғеӣҙпјҡ0-9пјҢе°Ҹж•°иҝӣиЎҢеӣӣиҲҚдә”е…ҘжҳҫзӨә
 768:User_BSP/OLED.c ****  * @param FontSize жҢҮе®ҡеӯ—дҪ“еӨ§е°Ҹ
 769:User_BSP/OLED.c ****  *           иҢғеӣҙпјҡOLED_8X16		е®Ҫ8еғҸзҙ пјҢй«ҳ16еғҸзҙ 
 770:User_BSP/OLED.c ****  *                  OLED_6X8	    е®Ҫ6еғҸзҙ пјҢй«ҳ8еғҸзҙ 
 771:User_BSP/OLED.c ****  * @return ж— 
 772:User_BSP/OLED.c ****  * @note и°ғз”ЁжӯӨеҮҪж•°еҗҺпјҢиҰҒжғізңҹжӯЈең°е‘ҲзҺ°еңЁеұҸе№•дёҠпјҢиҝҳйңҖи°ғз”Ёжӣҙж–°еҮҪж•°
 773:User_BSP/OLED.c ****  */
 774:User_BSP/OLED.c **** void OLED_ShowFloatNum(uint8_t X, uint8_t Y, double Number, uint8_t IntLength, uint8_t FraLength, u
 775:User_BSP/OLED.c **** {
 776:User_BSP/OLED.c ****     uint32_t PowNum, IntNum, FraNum;
 777:User_BSP/OLED.c **** 
 778:User_BSP/OLED.c ****     if (Number >= 0) // ж•°еӯ—еӨ§дәҺзӯүдәҺ0
 779:User_BSP/OLED.c ****     {
 780:User_BSP/OLED.c ****         OLED_ShowChar(X, Y, '+', FontSize); // жҳҫзӨә+еҸ·
 781:User_BSP/OLED.c ****     } else                                  // ж•°еӯ—е°ҸдәҺ0
 782:User_BSP/OLED.c ****     {
 783:User_BSP/OLED.c ****         OLED_ShowChar(X, Y, '-', FontSize); // жҳҫзӨә-еҸ·
 784:User_BSP/OLED.c ****         Number = -Number;                   // NumberеҸ–иҙҹ
 785:User_BSP/OLED.c ****     }
 786:User_BSP/OLED.c **** 
 787:User_BSP/OLED.c ****     /*жҸҗеҸ–ж•ҙж•°йғЁеҲҶе’Ңе°Ҹж•°йғЁеҲҶ*/
 788:User_BSP/OLED.c ****     IntNum = Number;                  // зӣҙжҺҘиөӢеҖјз»ҷж•ҙеһӢеҸҳйҮҸпјҢжҸҗеҸ–ж•ҙж•°
 789:User_BSP/OLED.c ****     Number -= IntNum;                 // е°ҶNumberзҡ„ж•ҙж•°еҮҸжҺүпјҢйҳІжӯўд№ӢеҗҺе°Ҷе°Ҹж•°д№ҳеҲ°ж•ҙж
 790:User_BSP/OLED.c ****     PowNum = OLED_Pow(10, FraLength); // ж №жҚ®жҢҮе®ҡе°Ҹж•°зҡ„дҪҚж•°пјҢзЎ®е®ҡд№ҳж•°
 791:User_BSP/OLED.c ****     FraNum = round(Number * PowNum);  // е°Ҷе°Ҹж•°д№ҳеҲ°ж•ҙж•°пјҢеҗҢж—¶еӣӣиҲҚдә”е…ҘпјҢйҒҝе…ҚжҳҫзӨәи
 792:User_BSP/OLED.c ****     IntNum += FraNum / PowNum;        // иӢҘеӣӣиҲҚдә”е…ҘйҖ жҲҗдәҶиҝӣдҪҚпјҢеҲҷйңҖиҰҒеҶҚеҠ з»ҷж•ҙж•°
 793:User_BSP/OLED.c **** 
 794:User_BSP/OLED.c ****     /*жҳҫзӨәж•ҙж•°йғЁеҲҶ*/
 795:User_BSP/OLED.c ****     OLED_ShowNum(X + FontSize, Y, IntNum, IntLength, FontSize);
 796:User_BSP/OLED.c **** 
 797:User_BSP/OLED.c ****     /*жҳҫзӨәе°Ҹж•°зӮ№*/
 798:User_BSP/OLED.c ****     OLED_ShowChar(X + (IntLength + 1) * FontSize, Y, '.', FontSize);
 799:User_BSP/OLED.c **** 
 800:User_BSP/OLED.c ****     /*жҳҫзӨәе°Ҹж•°йғЁеҲҶ*/
 801:User_BSP/OLED.c ****     OLED_ShowNum(X + (IntLength + 2) * FontSize, Y, FraNum, FraLength, FontSize);
 802:User_BSP/OLED.c **** }
 803:User_BSP/OLED.c **** 
 804:User_BSP/OLED.c **** ///**
 805:User_BSP/OLED.c **** // * @brief OLEDжҳҫзӨәжұүеӯ—дёІ
 806:User_BSP/OLED.c **** // * @param X жҢҮе®ҡжұүеӯ—дёІе·ҰдёҠи§’зҡ„жЁӘеқҗж ҮпјҢиҢғеӣҙпјҡ0-127
 807:User_BSP/OLED.c **** // * @param Y жҢҮе®ҡжұүеӯ—дёІе·ҰдёҠи§’зҡ„зәөеқҗж ҮпјҢиҢғеӣҙпјҡ0-63
 808:User_BSP/OLED.c **** // * @param Chinese жҢҮе®ҡиҰҒжҳҫзӨәзҡ„жұүеӯ—дёІпјҢиҢғеӣҙпјҡеҝ…йЎ»е…ЁйғЁдёәжұүеӯ—жҲ–иҖ…е…Ёи§’еӯ—з¬Ұп
 809:User_BSP/OLED.c **** // *           жҳҫзӨәзҡ„жұүеӯ—йңҖиҰҒеңЁOLED_Data.cйҮҢзҡ„OLED_CF16x16ж•°з»„е®ҡд№ү
 810:User_BSP/OLED.c **** // *           жңӘжүҫеҲ°жҢҮе®ҡжұүеӯ—ж—¶пјҢдјҡжҳҫзӨәй»ҳи®ӨеӣҫеҪўпјҲдёҖдёӘж–№жЎҶпјҢеҶ…йғЁдёҖдёӘй—®еҸ·
 811:User_BSP/OLED.c **** // * @return ж— 
 812:User_BSP/OLED.c **** // * @note и°ғз”ЁжӯӨеҮҪж•°еҗҺпјҢиҰҒжғізңҹжӯЈең°е‘ҲзҺ°еңЁеұҸе№•дёҠпјҢиҝҳйңҖи°ғз”Ёжӣҙж–°еҮҪж•°
 813:User_BSP/OLED.c **** // */
 814:User_BSP/OLED.c **** //void OLED_ShowChinese(uint8_t X, uint8_t Y, char *Chinese)
 815:User_BSP/OLED.c **** //{
 816:User_BSP/OLED.c **** //    uint8_t pChinese = 0;
 817:User_BSP/OLED.c **** //    uint8_t pIndex;
 818:User_BSP/OLED.c **** //    uint8_t i;
ARM GAS  C:\Users\bubble\AppData\Local\Temp\ccRMWmKE.s 			page 40


 819:User_BSP/OLED.c **** //    char SingleChinese[OLED_CHN_CHAR_WIDTH + 1] = {0}; // UTF8зј–з ҒжҳҜ3дёӘеӯ—иҠӮпјҢ+1жҳҜдёәдәҶеҠ
 820:User_BSP/OLED.c **** 
 821:User_BSP/OLED.c **** //    for (i = 0; Chinese[i] != '\0'; i++) // йҒҚеҺҶжұүеӯ—дёІ
 822:User_BSP/OLED.c **** //    {
 823:User_BSP/OLED.c **** //        SingleChinese[pChinese] = Chinese[i]; // жҸҗеҸ–жұүеӯ—дёІж•°жҚ®еҲ°еҚ•дёӘжұүеӯ—ж•°з»„
 824:User_BSP/OLED.c **** //        pChinese++;                           // и®Ўж¬ЎиҮӘеўһ
 825:User_BSP/OLED.c **** 
 826:User_BSP/OLED.c **** //        /*еҪ“жҸҗеҸ–ж¬Ўж•°еҲ°иҫҫOLED_CHN_CHAR_WIDTHж—¶пјҢеҚід»ЈиЎЁжҸҗеҸ–еҲ°дәҶдёҖдёӘе®Ңж•ҙзҡ„жұүеӯ
 827:User_BSP/OLED.c **** //        if (pChinese >= OLED_CHN_CHAR_WIDTH) {
 828:User_BSP/OLED.c **** //            SingleChinese[pChinese + 1] = '\0'; // еңЁжұүеӯ—еҗҺйқўиЎҘдёҠз©әеӯ—з¬ҰдёІпјҢиЎЁзӨәз»“ж
 829:User_BSP/OLED.c **** //            pChinese                    = 0;    // и®Ўж¬ЎеҪ’йӣ¶
 830:User_BSP/OLED.c **** 
 831:User_BSP/OLED.c **** //            /*йҒҚеҺҶж•ҙдёӘжұүеӯ—еӯ—жЁЎеә“пјҢеҜ»жүҫеҢ№й…Қзҡ„жұүеӯ—*/
 832:User_BSP/OLED.c **** //            /*еҰӮжһңжүҫеҲ°жңҖеҗҺдёҖдёӘжұүеӯ—пјҲе®ҡд№үдёәз©әеӯ—з¬ҰдёІпјүпјҢеҲҷиЎЁзӨәжұүеӯ—жңӘеңЁеӯ
 833:User_BSP/OLED.c **** //            for (pIndex = 0; strcmp(OLED_CF16x16[pIndex].Index, "") != 0; pIndex++) {
 834:User_BSP/OLED.c **** //                /*жүҫеҲ°еҢ№й…Қзҡ„жұүеӯ—*/
 835:User_BSP/OLED.c **** //                if (strcmp(OLED_CF16x16[pIndex].Index, SingleChinese) == 0) {
 836:User_BSP/OLED.c **** //                    break; // и·іеҮәеҫӘзҺҜпјҢжӯӨж—¶pIndexзҡ„еҖјдёәжҢҮе®ҡжұүеӯ—зҡ„зҙўеј•
 837:User_BSP/OLED.c **** //                }
 838:User_BSP/OLED.c **** //            }
 839:User_BSP/OLED.c **** 
 840:User_BSP/OLED.c **** //            /*е°Ҷжұүеӯ—еӯ—жЁЎеә“OLED_CF16x16зҡ„жҢҮе®ҡж•°жҚ®д»Ҙ16*16зҡ„еӣҫеғҸж јејҸжҳҫзӨә*/
 841:User_BSP/OLED.c **** //            OLED_ShowImage(X + ((i + 1) / OLED_CHN_CHAR_WIDTH - 1) * 16, Y, 16, 16, OLED_CF16x16[
 842:User_BSP/OLED.c **** //        }
 843:User_BSP/OLED.c **** //    }
 844:User_BSP/OLED.c **** //}
 845:User_BSP/OLED.c **** 
 846:User_BSP/OLED.c **** /**
 847:User_BSP/OLED.c ****  * @brief OLEDжҳҫзӨәеӣҫеғҸ
 848:User_BSP/OLED.c ****  * @param X жҢҮе®ҡеӣҫеғҸе·ҰдёҠи§’зҡ„жЁӘеқҗж ҮпјҢиҢғеӣҙпјҡ0-127
 849:User_BSP/OLED.c ****  * @param Y жҢҮе®ҡеӣҫеғҸе·ҰдёҠи§’зҡ„зәөеқҗж ҮпјҢиҢғеӣҙпјҡ0-63
 850:User_BSP/OLED.c ****  * @param Width жҢҮе®ҡеӣҫеғҸзҡ„е®ҪеәҰпјҢиҢғеӣҙпјҡ0-128
 851:User_BSP/OLED.c ****  * @param Height жҢҮе®ҡеӣҫеғҸзҡ„й«ҳеәҰпјҢиҢғеӣҙпјҡ0-64
 852:User_BSP/OLED.c ****  * @param Image жҢҮе®ҡиҰҒжҳҫзӨәзҡ„еӣҫеғҸ
 853:User_BSP/OLED.c ****  * @return ж— 
 854:User_BSP/OLED.c ****  * @note и°ғз”ЁжӯӨеҮҪж•°еҗҺпјҢиҰҒжғізңҹжӯЈең°е‘ҲзҺ°еңЁеұҸе№•дёҠпјҢиҝҳйңҖи°ғз”Ёжӣҙж–°еҮҪж•°
 855:User_BSP/OLED.c ****  */
 856:User_BSP/OLED.c **** void OLED_ShowImage(uint8_t X, uint8_t Y, uint8_t Width, uint8_t Height, const uint8_t *Image)
 857:User_BSP/OLED.c **** {
 1321              		.loc 1 857 1 is_stmt 1 view -0
 1322              		.cfi_startproc
 1323              		@ args = 4, pretend = 0, frame = 8
 1324              		@ frame_needed = 0, uses_anonymous_args = 0
 1325              		.loc 1 857 1 is_stmt 0 view .LVU330
 1326 0000 2DE9F04F 		push	{r4, r5, r6, r7, r8, r9, r10, fp, lr}
 1327              	.LCFI21:
 1328              		.cfi_def_cfa_offset 36
 1329              		.cfi_offset 4, -36
 1330              		.cfi_offset 5, -32
 1331              		.cfi_offset 6, -28
 1332              		.cfi_offset 7, -24
 1333              		.cfi_offset 8, -20
 1334              		.cfi_offset 9, -16
 1335              		.cfi_offset 10, -12
 1336              		.cfi_offset 11, -8
 1337              		.cfi_offset 14, -4
 1338 0004 83B0     		sub	sp, sp, #12
ARM GAS  C:\Users\bubble\AppData\Local\Temp\ccRMWmKE.s 			page 41


 1339              	.LCFI22:
 1340              		.cfi_def_cfa_offset 48
 1341 0006 0193     		str	r3, [sp, #4]
 1342 0008 0C9F     		ldr	r7, [sp, #48]
 858:User_BSP/OLED.c ****     uint8_t i, j;
 1343              		.loc 1 858 5 is_stmt 1 view .LVU331
 859:User_BSP/OLED.c **** 
 860:User_BSP/OLED.c ****     /*еҸӮж•°жЈҖжҹҘпјҢдҝқиҜҒжҢҮе®ҡеӣҫеғҸдёҚдјҡи¶…еҮәеұҸе№•иҢғеӣҙ*/
 861:User_BSP/OLED.c ****     if (X > 127) { return; }
 1344              		.loc 1 861 5 view .LVU332
 1345              		.loc 1 861 8 is_stmt 0 view .LVU333
 1346 000a 10F0800F 		tst	r0, #128
 1347 000e 04D1     		bne	.L106
 1348 0010 8046     		mov	r8, r0
 1349 0012 0D46     		mov	r5, r1
 1350 0014 1646     		mov	r6, r2
 862:User_BSP/OLED.c ****     if (Y > 63) { return; }
 1351              		.loc 1 862 5 is_stmt 1 view .LVU334
 1352              		.loc 1 862 8 is_stmt 0 view .LVU335
 1353 0016 3F29     		cmp	r1, #63
 1354 0018 02D9     		bls	.L116
 1355              	.LVL139:
 1356              	.L106:
 863:User_BSP/OLED.c **** 
 864:User_BSP/OLED.c ****     /*е°ҶеӣҫеғҸжүҖеңЁеҢәеҹҹжё…з©ә*/
 865:User_BSP/OLED.c ****     OLED_ClearArea(X, Y, Width, Height);
 866:User_BSP/OLED.c **** 
 867:User_BSP/OLED.c ****     /*йҒҚеҺҶжҢҮе®ҡеӣҫеғҸж¶үеҸҠзҡ„зӣёе…ійЎө*/
 868:User_BSP/OLED.c ****     /*(Height - 1) / 8 + 1зҡ„зӣ®зҡ„жҳҜHeight / 8е№¶еҗ‘дёҠеҸ–ж•ҙ*/
 869:User_BSP/OLED.c ****     for (j = 0; j < (Height - 1) / 8 + 1; j++) {
 870:User_BSP/OLED.c ****         /*йҒҚеҺҶжҢҮе®ҡеӣҫеғҸж¶үеҸҠзҡ„зӣёе…іеҲ—*/
 871:User_BSP/OLED.c ****         for (i = 0; i < Width; i++) {
 872:User_BSP/OLED.c ****             /*и¶…еҮәиҫ№з•ҢпјҢеҲҷи·іиҝҮжҳҫзӨә*/
 873:User_BSP/OLED.c ****             if (X + i > 127) { break; }
 874:User_BSP/OLED.c ****             if (Y / 8 + j > 7) { return; }
 875:User_BSP/OLED.c **** 
 876:User_BSP/OLED.c ****             /*жҳҫзӨәеӣҫеғҸеңЁеҪ“еүҚйЎөзҡ„еҶ…е®№*/
 877:User_BSP/OLED.c ****             OLED_DisplayBuf[Y / 8 + j][X + i] |= Image[j * Width + i] << (Y % 8);
 878:User_BSP/OLED.c **** 
 879:User_BSP/OLED.c ****             /*и¶…еҮәиҫ№з•ҢпјҢеҲҷи·іиҝҮжҳҫзӨә*/
 880:User_BSP/OLED.c ****             /*дҪҝз”Ёcontinueзҡ„зӣ®зҡ„жҳҜпјҢдёӢдёҖйЎөи¶…еҮәиҫ№з•Ңж—¶пјҢдёҠдёҖйЎөзҡ„еҗҺз»ӯеҶ…е®№иҝҳйң
 881:User_BSP/OLED.c ****             if (Y / 8 + j + 1 > 7) { continue; }
 882:User_BSP/OLED.c **** 
 883:User_BSP/OLED.c ****             /*жҳҫзӨәеӣҫеғҸеңЁдёӢдёҖйЎөзҡ„еҶ…е®№*/
 884:User_BSP/OLED.c ****             OLED_DisplayBuf[Y / 8 + j + 1][X + i] |= Image[j * Width + i] >> (8 - Y % 8);
 885:User_BSP/OLED.c ****         }
 886:User_BSP/OLED.c ****     }
 887:User_BSP/OLED.c **** }
 1357              		.loc 1 887 1 view .LVU336
 1358 001a 03B0     		add	sp, sp, #12
 1359              	.LCFI23:
 1360              		.cfi_remember_state
 1361              		.cfi_def_cfa_offset 36
 1362              		@ sp needed
 1363 001c BDE8F08F 		pop	{r4, r5, r6, r7, r8, r9, r10, fp, pc}
 1364              	.LVL140:
 1365              	.L116:
ARM GAS  C:\Users\bubble\AppData\Local\Temp\ccRMWmKE.s 			page 42


 1366              	.LCFI24:
 1367              		.cfi_restore_state
 865:User_BSP/OLED.c **** 
 1368              		.loc 1 865 5 is_stmt 1 view .LVU337
 1369 0020 FFF7FEFF 		bl	OLED_ClearArea
 1370              	.LVL141:
 869:User_BSP/OLED.c ****         /*йҒҚеҺҶжҢҮе®ҡеӣҫеғҸж¶үеҸҠзҡ„зӣёе…іеҲ—*/
 1371              		.loc 1 869 5 view .LVU338
 869:User_BSP/OLED.c ****         /*йҒҚеҺҶжҢҮе®ҡеӣҫеғҸж¶үеҸҠзҡ„зӣёе…іеҲ—*/
 1372              		.loc 1 869 12 is_stmt 0 view .LVU339
 1373 0024 4FF0000B 		mov	fp, #0
 869:User_BSP/OLED.c ****         /*йҒҚеҺҶжҢҮе®ҡеӣҫеғҸж¶үеҸҠзҡ„зӣёе…іеҲ—*/
 1374              		.loc 1 869 5 view .LVU340
 1375 0028 33E0     		b	.L108
 1376              	.LVL142:
 1377              	.L110:
 871:User_BSP/OLED.c ****             /*и¶…еҮәиҫ№з•ҢпјҢеҲҷи·іиҝҮжҳҫзӨә*/
 1378              		.loc 1 871 32 is_stmt 1 discriminator 2 view .LVU341
 871:User_BSP/OLED.c ****             /*и¶…еҮәиҫ№з•ҢпјҢеҲҷи·іиҝҮжҳҫзӨә*/
 1379              		.loc 1 871 33 is_stmt 0 discriminator 2 view .LVU342
 1380 002a 0133     		adds	r3, r3, #1
 1381              	.LVL143:
 871:User_BSP/OLED.c ****             /*и¶…еҮәиҫ№з•ҢпјҢеҲҷи·іиҝҮжҳҫзӨә*/
 1382              		.loc 1 871 33 discriminator 2 view .LVU343
 1383 002c DBB2     		uxtb	r3, r3
 1384              	.LVL144:
 1385              	.L113:
 871:User_BSP/OLED.c ****             /*и¶…еҮәиҫ№з•ҢпјҢеҲҷи·іиҝҮжҳҫзӨә*/
 1386              		.loc 1 871 21 is_stmt 1 discriminator 1 view .LVU344
 871:User_BSP/OLED.c ****             /*и¶…еҮәиҫ№з•ҢпјҢеҲҷи·іиҝҮжҳҫзӨә*/
 1387              		.loc 1 871 9 is_stmt 0 discriminator 1 view .LVU345
 1388 002e B342     		cmp	r3, r6
 1389 0030 2BD2     		bcs	.L109
 873:User_BSP/OLED.c ****             if (Y / 8 + j > 7) { return; }
 1390              		.loc 1 873 13 is_stmt 1 view .LVU346
 873:User_BSP/OLED.c ****             if (Y / 8 + j > 7) { return; }
 1391              		.loc 1 873 19 is_stmt 0 view .LVU347
 1392 0032 08EB0301 		add	r1, r8, r3
 873:User_BSP/OLED.c ****             if (Y / 8 + j > 7) { return; }
 1393              		.loc 1 873 16 view .LVU348
 1394 0036 7F29     		cmp	r1, #127
 1395 0038 27DC     		bgt	.L109
 874:User_BSP/OLED.c **** 
 1396              		.loc 1 874 13 is_stmt 1 view .LVU349
 874:User_BSP/OLED.c **** 
 1397              		.loc 1 874 23 is_stmt 0 view .LVU350
 1398 003a 0AEBD502 		add	r2, r10, r5, lsr #3
 874:User_BSP/OLED.c **** 
 1399              		.loc 1 874 16 view .LVU351
 1400 003e 072A     		cmp	r2, #7
 1401 0040 EBDC     		bgt	.L106
 877:User_BSP/OLED.c **** 
 1402              		.loc 1 877 13 is_stmt 1 view .LVU352
 877:User_BSP/OLED.c **** 
 1403              		.loc 1 877 66 is_stmt 0 view .LVU353
 1404 0042 0AFB0634 		mla	r4, r10, r6, r3
 877:User_BSP/OLED.c **** 
ARM GAS  C:\Users\bubble\AppData\Local\Temp\ccRMWmKE.s 			page 43


 1405              		.loc 1 877 55 view .LVU354
 1406 0046 17F804E0 		ldrb	lr, [r7, r4]	@ zero_extendqisi2
 877:User_BSP/OLED.c **** 
 1407              		.loc 1 877 77 view .LVU355
 1408 004a 05F0070C 		and	ip, r5, #7
 877:User_BSP/OLED.c **** 
 1409              		.loc 1 877 71 view .LVU356
 1410 004e 0EFA0CF9 		lsl	r9, lr, ip
 877:User_BSP/OLED.c **** 
 1411              		.loc 1 877 47 view .LVU357
 1412 0052 1548     		ldr	r0, .L118
 1413 0054 00EBC210 		add	r0, r0, r2, lsl #7
 1414 0058 10F801E0 		ldrb	lr, [r0, r1]	@ zero_extendqisi2
 1415 005c 4EEA090E 		orr	lr, lr, r9
 1416 0060 00F801E0 		strb	lr, [r0, r1]
 881:User_BSP/OLED.c **** 
 1417              		.loc 1 881 13 is_stmt 1 view .LVU358
 881:User_BSP/OLED.c **** 
 1418              		.loc 1 881 16 is_stmt 0 view .LVU359
 1419 0064 062A     		cmp	r2, #6
 1420 0066 E0DC     		bgt	.L110
 884:User_BSP/OLED.c ****         }
 1421              		.loc 1 884 13 is_stmt 1 view .LVU360
 884:User_BSP/OLED.c ****         }
 1422              		.loc 1 884 51 is_stmt 0 view .LVU361
 1423 0068 02F1010E 		add	lr, r2, #1
 884:User_BSP/OLED.c ****         }
 1424              		.loc 1 884 59 view .LVU362
 1425 006c 385D     		ldrb	r0, [r7, r4]	@ zero_extendqisi2
 884:User_BSP/OLED.c ****         }
 1426              		.loc 1 884 81 view .LVU363
 1427 006e CCF1080C 		rsb	ip, ip, #8
 884:User_BSP/OLED.c ****         }
 1428              		.loc 1 884 75 view .LVU364
 1429 0072 40FA0CF0 		asr	r0, r0, ip
 884:User_BSP/OLED.c ****         }
 1430              		.loc 1 884 51 view .LVU365
 1431 0076 0C4A     		ldr	r2, .L118
 1432 0078 02EBCE12 		add	r2, r2, lr, lsl #7
 1433 007c 12F801C0 		ldrb	ip, [r2, r1]	@ zero_extendqisi2
 1434 0080 4CEA000C 		orr	ip, ip, r0
 1435 0084 02F801C0 		strb	ip, [r2, r1]
 1436 0088 CFE7     		b	.L110
 1437              	.L109:
 869:User_BSP/OLED.c ****         /*йҒҚеҺҶжҢҮе®ҡеӣҫеғҸж¶үеҸҠзҡ„зӣёе…іеҲ—*/
 1438              		.loc 1 869 43 is_stmt 1 discriminator 2 view .LVU366
 869:User_BSP/OLED.c ****         /*йҒҚеҺҶжҢҮе®ҡеӣҫеғҸж¶үеҸҠзҡ„зӣёе…іеҲ—*/
 1439              		.loc 1 869 44 is_stmt 0 discriminator 2 view .LVU367
 1440 008a 0BF1010B 		add	fp, fp, #1
 1441              	.LVL145:
 869:User_BSP/OLED.c ****         /*йҒҚеҺҶжҢҮе®ҡеӣҫеғҸж¶үеҸҠзҡ„зӣёе…іеҲ—*/
 1442              		.loc 1 869 44 discriminator 2 view .LVU368
 1443 008e 5FFA8BFB 		uxtb	fp, fp
 1444              	.LVL146:
 1445              	.L108:
 869:User_BSP/OLED.c ****         /*йҒҚеҺҶжҢҮе®ҡеӣҫеғҸж¶үеҸҠзҡ„зӣёе…іеҲ—*/
 1446              		.loc 1 869 17 is_stmt 1 discriminator 1 view .LVU369
ARM GAS  C:\Users\bubble\AppData\Local\Temp\ccRMWmKE.s 			page 44


 869:User_BSP/OLED.c ****         /*йҒҚеҺҶжҢҮе®ҡеӣҫеғҸж¶үеҸҠзҡ„зӣёе…іеҲ—*/
 1447              		.loc 1 869 34 is_stmt 0 discriminator 1 view .LVU370
 1448 0092 019B     		ldr	r3, [sp, #4]
 1449 0094 013B     		subs	r3, r3, #1
 1450 0096 05D4     		bmi	.L117
 1451              	.L112:
 869:User_BSP/OLED.c ****         /*йҒҚеҺҶжҢҮе®ҡеӣҫеғҸж¶үеҸҠзҡ„зӣёе…іеҲ—*/
 1452              		.loc 1 869 19 discriminator 1 view .LVU371
 1453 0098 DA46     		mov	r10, fp
 869:User_BSP/OLED.c ****         /*йҒҚеҺҶжҢҮе®ҡеӣҫеғҸж¶үеҸҠзҡ„зӣёе…іеҲ—*/
 1454              		.loc 1 869 5 discriminator 1 view .LVU372
 1455 009a BBEBE30F 		cmp	fp, r3, asr #3
 1456 009e BCDC     		bgt	.L106
 871:User_BSP/OLED.c ****             /*и¶…еҮәиҫ№з•ҢпјҢеҲҷи·іиҝҮжҳҫзӨә*/
 1457              		.loc 1 871 16 view .LVU373
 1458 00a0 0023     		movs	r3, #0
 1459 00a2 C4E7     		b	.L113
 1460              	.L117:
 869:User_BSP/OLED.c ****         /*йҒҚеҺҶжҢҮе®ҡеӣҫеғҸж¶үеҸҠзҡ„зӣёе…іеҲ—*/
 1461              		.loc 1 869 34 discriminator 1 view .LVU374
 1462 00a4 0733     		adds	r3, r3, #7
 1463 00a6 F7E7     		b	.L112
 1464              	.L119:
 1465              		.align	2
 1466              	.L118:
 1467 00a8 00000000 		.word	.LANCHOR0
 1468              		.cfi_endproc
 1469              	.LFE266:
 1471              		.section	.text.OLED_ShowChar,"ax",%progbits
 1472              		.align	1
 1473              		.global	OLED_ShowChar
 1474              		.syntax unified
 1475              		.thumb
 1476              		.thumb_func
 1478              	OLED_ShowChar:
 1479              	.LVL147:
 1480              	.LFB259:
 610:User_BSP/OLED.c ****     if (FontSize == OLED_8X16) // еӯ—дҪ“дёәе®Ҫ8еғҸзҙ пјҢй«ҳ16еғҸзҙ 
 1481              		.loc 1 610 1 is_stmt 1 view -0
 1482              		.cfi_startproc
 1483              		@ args = 0, pretend = 0, frame = 0
 1484              		@ frame_needed = 0, uses_anonymous_args = 0
 610:User_BSP/OLED.c ****     if (FontSize == OLED_8X16) // еӯ—дҪ“дёәе®Ҫ8еғҸзҙ пјҢй«ҳ16еғҸзҙ 
 1485              		.loc 1 610 1 is_stmt 0 view .LVU376
 1486 0000 00B5     		push	{lr}
 1487              	.LCFI25:
 1488              		.cfi_def_cfa_offset 4
 1489              		.cfi_offset 14, -4
 1490 0002 83B0     		sub	sp, sp, #12
 1491              	.LCFI26:
 1492              		.cfi_def_cfa_offset 16
 611:User_BSP/OLED.c ****     {
 1493              		.loc 1 611 5 is_stmt 1 view .LVU377
 611:User_BSP/OLED.c ****     {
 1494              		.loc 1 611 8 is_stmt 0 view .LVU378
 1495 0004 082B     		cmp	r3, #8
 1496 0006 04D0     		beq	.L124
ARM GAS  C:\Users\bubble\AppData\Local\Temp\ccRMWmKE.s 			page 45


 615:User_BSP/OLED.c ****     {
 1497              		.loc 1 615 12 is_stmt 1 view .LVU379
 615:User_BSP/OLED.c ****     {
 1498              		.loc 1 615 15 is_stmt 0 view .LVU380
 1499 0008 062B     		cmp	r3, #6
 1500 000a 0CD0     		beq	.L125
 1501              	.LVL148:
 1502              	.L120:
 620:User_BSP/OLED.c **** 
 1503              		.loc 1 620 1 view .LVU381
 1504 000c 03B0     		add	sp, sp, #12
 1505              	.LCFI27:
 1506              		.cfi_remember_state
 1507              		.cfi_def_cfa_offset 4
 1508              		@ sp needed
 1509 000e 5DF804FB 		ldr	pc, [sp], #4
 1510              	.LVL149:
 1511              	.L124:
 1512              	.LCFI28:
 1513              		.cfi_restore_state
 614:User_BSP/OLED.c ****     } else if (FontSize == OLED_6X8) // еӯ—дҪ“дёәе®Ҫ6еғҸзҙ пјҢй«ҳ8еғҸзҙ 
 1514              		.loc 1 614 9 is_stmt 1 view .LVU382
 614:User_BSP/OLED.c ****     } else if (FontSize == OLED_6X8) // еӯ—дҪ“дёәе®Ҫ6еғҸзҙ пјҢй«ҳ8еғҸзҙ 
 1515              		.loc 1 614 53 is_stmt 0 view .LVU383
 1516 0012 203A     		subs	r2, r2, #32
 1517              	.LVL150:
 614:User_BSP/OLED.c ****     } else if (FontSize == OLED_6X8) // еӯ—дҪ“дёәе®Ҫ6еғҸзҙ пјҢй«ҳ8еғҸзҙ 
 1518              		.loc 1 614 47 view .LVU384
 1519 0014 0A4B     		ldr	r3, .L126
 1520              	.LVL151:
 614:User_BSP/OLED.c ****     } else if (FontSize == OLED_6X8) // еӯ—дҪ“дёәе®Ҫ6еғҸзҙ пјҢй«ҳ8еғҸзҙ 
 1521              		.loc 1 614 47 view .LVU385
 1522 0016 03EB0212 		add	r2, r3, r2, lsl #4
 614:User_BSP/OLED.c ****     } else if (FontSize == OLED_6X8) // еӯ—дҪ“дёәе®Ҫ6еғҸзҙ пјҢй«ҳ8еғҸзҙ 
 1523              		.loc 1 614 9 view .LVU386
 1524 001a 0092     		str	r2, [sp]
 1525 001c 1023     		movs	r3, #16
 1526 001e 0822     		movs	r2, #8
 1527 0020 FFF7FEFF 		bl	OLED_ShowImage
 1528              	.LVL152:
 614:User_BSP/OLED.c ****     } else if (FontSize == OLED_6X8) // еӯ—дҪ“дёәе®Ҫ6еғҸзҙ пјҢй«ҳ8еғҸзҙ 
 1529              		.loc 1 614 9 view .LVU387
 1530 0024 F2E7     		b	.L120
 1531              	.LVL153:
 1532              	.L125:
 618:User_BSP/OLED.c ****     }
 1533              		.loc 1 618 9 is_stmt 1 view .LVU388
 618:User_BSP/OLED.c ****     }
 1534              		.loc 1 618 51 is_stmt 0 view .LVU389
 1535 0026 203A     		subs	r2, r2, #32
 1536              	.LVL154:
 618:User_BSP/OLED.c ****     }
 1537              		.loc 1 618 45 view .LVU390
 1538 0028 02EB4202 		add	r2, r2, r2, lsl #1
 1539 002c 054B     		ldr	r3, .L126+4
 1540              	.LVL155:
 618:User_BSP/OLED.c ****     }
ARM GAS  C:\Users\bubble\AppData\Local\Temp\ccRMWmKE.s 			page 46


 1541              		.loc 1 618 45 view .LVU391
 1542 002e 03EB4202 		add	r2, r3, r2, lsl #1
 618:User_BSP/OLED.c ****     }
 1543              		.loc 1 618 9 view .LVU392
 1544 0032 0092     		str	r2, [sp]
 1545 0034 0823     		movs	r3, #8
 1546 0036 0622     		movs	r2, #6
 1547 0038 FFF7FEFF 		bl	OLED_ShowImage
 1548              	.LVL156:
 620:User_BSP/OLED.c **** 
 1549              		.loc 1 620 1 view .LVU393
 1550 003c E6E7     		b	.L120
 1551              	.L127:
 1552 003e 00BF     		.align	2
 1553              	.L126:
 1554 0040 00000000 		.word	OLED_F8x16
 1555 0044 00000000 		.word	OLED_F6x8
 1556              		.cfi_endproc
 1557              	.LFE259:
 1559              		.section	.text.OLED_ShowString,"ax",%progbits
 1560              		.align	1
 1561              		.global	OLED_ShowString
 1562              		.syntax unified
 1563              		.thumb
 1564              		.thumb_func
 1566              	OLED_ShowString:
 1567              	.LVL157:
 1568              	.LFB260:
 634:User_BSP/OLED.c ****     uint8_t i;
 1569              		.loc 1 634 1 is_stmt 1 view -0
 1570              		.cfi_startproc
 1571              		@ args = 0, pretend = 0, frame = 0
 1572              		@ frame_needed = 0, uses_anonymous_args = 0
 634:User_BSP/OLED.c ****     uint8_t i;
 1573              		.loc 1 634 1 is_stmt 0 view .LVU395
 1574 0000 2DE9F041 		push	{r4, r5, r6, r7, r8, lr}
 1575              	.LCFI29:
 1576              		.cfi_def_cfa_offset 24
 1577              		.cfi_offset 4, -24
 1578              		.cfi_offset 5, -20
 1579              		.cfi_offset 6, -16
 1580              		.cfi_offset 7, -12
 1581              		.cfi_offset 8, -8
 1582              		.cfi_offset 14, -4
 1583 0004 8046     		mov	r8, r0
 1584 0006 0F46     		mov	r7, r1
 1585 0008 1646     		mov	r6, r2
 1586 000a 1D46     		mov	r5, r3
 635:User_BSP/OLED.c ****     for (i = 0; String[i] != '\0'; i++) // йҒҚеҺҶеӯ—з¬ҰдёІзҡ„жҜҸдёӘеӯ—з¬Ұ
 1587              		.loc 1 635 5 is_stmt 1 view .LVU396
 636:User_BSP/OLED.c ****     {
 1588              		.loc 1 636 5 view .LVU397
 1589              	.LVL158:
 636:User_BSP/OLED.c ****     {
 1590              		.loc 1 636 12 is_stmt 0 view .LVU398
 1591 000c 0024     		movs	r4, #0
 636:User_BSP/OLED.c ****     {
ARM GAS  C:\Users\bubble\AppData\Local\Temp\ccRMWmKE.s 			page 47


 1592              		.loc 1 636 5 view .LVU399
 1593 000e 0AE0     		b	.L129
 1594              	.LVL159:
 1595              	.L130:
 639:User_BSP/OLED.c ****     }
 1596              		.loc 1 639 9 is_stmt 1 discriminator 3 view .LVU400
 639:User_BSP/OLED.c ****     }
 1597              		.loc 1 639 29 is_stmt 0 discriminator 3 view .LVU401
 1598 0010 14FB05F0 		smulbb	r0, r4, r5
 639:User_BSP/OLED.c ****     }
 1599              		.loc 1 639 9 discriminator 3 view .LVU402
 1600 0014 58FA80F0 		uxtab	r0, r8, r0
 1601 0018 2B46     		mov	r3, r5
 1602 001a 3946     		mov	r1, r7
 1603 001c C0B2     		uxtb	r0, r0
 1604 001e FFF7FEFF 		bl	OLED_ShowChar
 1605              	.LVL160:
 636:User_BSP/OLED.c ****     {
 1606              		.loc 1 636 36 is_stmt 1 discriminator 3 view .LVU403
 636:User_BSP/OLED.c ****     {
 1607              		.loc 1 636 37 is_stmt 0 discriminator 3 view .LVU404
 1608 0022 0134     		adds	r4, r4, #1
 1609              	.LVL161:
 636:User_BSP/OLED.c ****     {
 1610              		.loc 1 636 37 discriminator 3 view .LVU405
 1611 0024 E4B2     		uxtb	r4, r4
 1612              	.LVL162:
 1613              	.L129:
 636:User_BSP/OLED.c ****     {
 1614              		.loc 1 636 17 is_stmt 1 discriminator 1 view .LVU406
 636:User_BSP/OLED.c ****     {
 1615              		.loc 1 636 23 is_stmt 0 discriminator 1 view .LVU407
 1616 0026 325D     		ldrb	r2, [r6, r4]	@ zero_extendqisi2
 636:User_BSP/OLED.c ****     {
 1617              		.loc 1 636 5 discriminator 1 view .LVU408
 1618 0028 002A     		cmp	r2, #0
 1619 002a F1D1     		bne	.L130
 641:User_BSP/OLED.c **** 
 1620              		.loc 1 641 1 view .LVU409
 1621 002c BDE8F081 		pop	{r4, r5, r6, r7, r8, pc}
 641:User_BSP/OLED.c **** 
 1622              		.loc 1 641 1 view .LVU410
 1623              		.cfi_endproc
 1624              	.LFE260:
 1626              		.section	.text.OLED_ShowNum,"ax",%progbits
 1627              		.align	1
 1628              		.global	OLED_ShowNum
 1629              		.syntax unified
 1630              		.thumb
 1631              		.thumb_func
 1633              	OLED_ShowNum:
 1634              	.LVL163:
 1635              	.LFB261:
 656:User_BSP/OLED.c ****     uint8_t i;
 1636              		.loc 1 656 1 is_stmt 1 view -0
 1637              		.cfi_startproc
 1638              		@ args = 4, pretend = 0, frame = 0
ARM GAS  C:\Users\bubble\AppData\Local\Temp\ccRMWmKE.s 			page 48


 1639              		@ frame_needed = 0, uses_anonymous_args = 0
 656:User_BSP/OLED.c ****     uint8_t i;
 1640              		.loc 1 656 1 is_stmt 0 view .LVU412
 1641 0000 2DE9F047 		push	{r4, r5, r6, r7, r8, r9, r10, lr}
 1642              	.LCFI30:
 1643              		.cfi_def_cfa_offset 32
 1644              		.cfi_offset 4, -32
 1645              		.cfi_offset 5, -28
 1646              		.cfi_offset 6, -24
 1647              		.cfi_offset 7, -20
 1648              		.cfi_offset 8, -16
 1649              		.cfi_offset 9, -12
 1650              		.cfi_offset 10, -8
 1651              		.cfi_offset 14, -4
 1652 0004 8246     		mov	r10, r0
 1653 0006 8946     		mov	r9, r1
 1654 0008 9046     		mov	r8, r2
 1655 000a 1E46     		mov	r6, r3
 1656 000c 9DF82070 		ldrb	r7, [sp, #32]	@ zero_extendqisi2
 657:User_BSP/OLED.c ****     for (i = 0; i < Length; i++) // йҒҚеҺҶж•°еӯ—зҡ„жҜҸдёҖдҪҚ
 1657              		.loc 1 657 5 is_stmt 1 view .LVU413
 658:User_BSP/OLED.c ****     {
 1658              		.loc 1 658 5 view .LVU414
 1659              	.LVL164:
 658:User_BSP/OLED.c ****     {
 1660              		.loc 1 658 12 is_stmt 0 view .LVU415
 1661 0010 0024     		movs	r4, #0
 658:User_BSP/OLED.c ****     {
 1662              		.loc 1 658 5 view .LVU416
 1663 0012 1CE0     		b	.L133
 1664              	.LVL165:
 1665              	.L134:
 663:User_BSP/OLED.c ****     }
 1666              		.loc 1 663 9 is_stmt 1 discriminator 3 view .LVU417
 663:User_BSP/OLED.c ****     }
 1667              		.loc 1 663 29 is_stmt 0 discriminator 3 view .LVU418
 1668 0014 14FB07F5 		smulbb	r5, r4, r7
 663:User_BSP/OLED.c ****     }
 1669              		.loc 1 663 9 discriminator 3 view .LVU419
 1670 0018 5AFA85F5 		uxtab	r5, r10, r5
 1671 001c EDB2     		uxtb	r5, r5
 663:User_BSP/OLED.c ****     }
 1672              		.loc 1 663 73 discriminator 3 view .LVU420
 1673 001e 311B     		subs	r1, r6, r4
 663:User_BSP/OLED.c ****     }
 1674              		.loc 1 663 53 discriminator 3 view .LVU421
 1675 0020 0139     		subs	r1, r1, #1
 1676 0022 0A20     		movs	r0, #10
 1677 0024 FFF7FEFF 		bl	OLED_Pow
 1678              	.LVL166:
 663:User_BSP/OLED.c ****     }
 1679              		.loc 1 663 51 discriminator 3 view .LVU422
 1680 0028 B8FBF0F0 		udiv	r0, r8, r0
 663:User_BSP/OLED.c ****     }
 1681              		.loc 1 663 82 discriminator 3 view .LVU423
 1682 002c 0A4A     		ldr	r2, .L136
 1683 002e A2FB0032 		umull	r3, r2, r2, r0
ARM GAS  C:\Users\bubble\AppData\Local\Temp\ccRMWmKE.s 			page 49


 1684 0032 D208     		lsrs	r2, r2, #3
 1685 0034 02EB8202 		add	r2, r2, r2, lsl #2
 1686 0038 A0EB4202 		sub	r2, r0, r2, lsl #1
 663:User_BSP/OLED.c ****     }
 1687              		.loc 1 663 9 discriminator 3 view .LVU424
 1688 003c 3032     		adds	r2, r2, #48
 1689 003e 3B46     		mov	r3, r7
 1690 0040 D2B2     		uxtb	r2, r2
 1691 0042 4946     		mov	r1, r9
 1692 0044 2846     		mov	r0, r5
 1693 0046 FFF7FEFF 		bl	OLED_ShowChar
 1694              	.LVL167:
 658:User_BSP/OLED.c ****     {
 1695              		.loc 1 658 29 is_stmt 1 discriminator 3 view .LVU425
 658:User_BSP/OLED.c ****     {
 1696              		.loc 1 658 30 is_stmt 0 discriminator 3 view .LVU426
 1697 004a 0134     		adds	r4, r4, #1
 1698              	.LVL168:
 658:User_BSP/OLED.c ****     {
 1699              		.loc 1 658 30 discriminator 3 view .LVU427
 1700 004c E4B2     		uxtb	r4, r4
 1701              	.LVL169:
 1702              	.L133:
 658:User_BSP/OLED.c ****     {
 1703              		.loc 1 658 17 is_stmt 1 discriminator 1 view .LVU428
 658:User_BSP/OLED.c ****     {
 1704              		.loc 1 658 5 is_stmt 0 discriminator 1 view .LVU429
 1705 004e B442     		cmp	r4, r6
 1706 0050 E0D3     		bcc	.L134
 665:User_BSP/OLED.c **** 
 1707              		.loc 1 665 1 view .LVU430
 1708 0052 BDE8F087 		pop	{r4, r5, r6, r7, r8, r9, r10, pc}
 1709              	.LVL170:
 1710              	.L137:
 665:User_BSP/OLED.c **** 
 1711              		.loc 1 665 1 view .LVU431
 1712 0056 00BF     		.align	2
 1713              	.L136:
 1714 0058 CDCCCCCC 		.word	-858993459
 1715              		.cfi_endproc
 1716              	.LFE261:
 1718              		.section	.text.OLED_ShowSignedNum,"ax",%progbits
 1719              		.align	1
 1720              		.global	OLED_ShowSignedNum
 1721              		.syntax unified
 1722              		.thumb
 1723              		.thumb_func
 1725              	OLED_ShowSignedNum:
 1726              	.LVL171:
 1727              	.LFB262:
 680:User_BSP/OLED.c ****     uint8_t i;
 1728              		.loc 1 680 1 is_stmt 1 view -0
 1729              		.cfi_startproc
 1730              		@ args = 4, pretend = 0, frame = 0
 1731              		@ frame_needed = 0, uses_anonymous_args = 0
 680:User_BSP/OLED.c ****     uint8_t i;
 1732              		.loc 1 680 1 is_stmt 0 view .LVU433
ARM GAS  C:\Users\bubble\AppData\Local\Temp\ccRMWmKE.s 			page 50


 1733 0000 2DE9F047 		push	{r4, r5, r6, r7, r8, r9, r10, lr}
 1734              	.LCFI31:
 1735              		.cfi_def_cfa_offset 32
 1736              		.cfi_offset 4, -32
 1737              		.cfi_offset 5, -28
 1738              		.cfi_offset 6, -24
 1739              		.cfi_offset 7, -20
 1740              		.cfi_offset 8, -16
 1741              		.cfi_offset 9, -12
 1742              		.cfi_offset 10, -8
 1743              		.cfi_offset 14, -4
 1744 0004 8146     		mov	r9, r0
 1745 0006 8A46     		mov	r10, r1
 1746 0008 1E46     		mov	r6, r3
 1747 000a 9DF82070 		ldrb	r7, [sp, #32]	@ zero_extendqisi2
 681:User_BSP/OLED.c ****     uint32_t Number1;
 1748              		.loc 1 681 5 is_stmt 1 view .LVU434
 682:User_BSP/OLED.c **** 
 1749              		.loc 1 682 5 view .LVU435
 684:User_BSP/OLED.c ****     {
 1750              		.loc 1 684 5 view .LVU436
 684:User_BSP/OLED.c ****     {
 1751              		.loc 1 684 8 is_stmt 0 view .LVU437
 1752 000e B2F10008 		subs	r8, r2, #0
 1753 0012 05DB     		blt	.L139
 686:User_BSP/OLED.c ****         Number1 = Number;                   // Number1зӣҙжҺҘзӯүдәҺNumber
 1754              		.loc 1 686 9 is_stmt 1 view .LVU438
 1755 0014 3B46     		mov	r3, r7
 1756              	.LVL172:
 686:User_BSP/OLED.c ****         Number1 = Number;                   // Number1зӣҙжҺҘзӯүдәҺNumber
 1757              		.loc 1 686 9 is_stmt 0 view .LVU439
 1758 0016 2B22     		movs	r2, #43
 1759              	.LVL173:
 686:User_BSP/OLED.c ****         Number1 = Number;                   // Number1зӣҙжҺҘзӯүдәҺNumber
 1760              		.loc 1 686 9 view .LVU440
 1761 0018 FFF7FEFF 		bl	OLED_ShowChar
 1762              	.LVL174:
 687:User_BSP/OLED.c ****     } else                                  // ж•°еӯ—е°ҸдәҺ0
 1763              		.loc 1 687 9 is_stmt 1 view .LVU441
 1764              	.L140:
 694:User_BSP/OLED.c ****     {
 1765              		.loc 1 694 5 view .LVU442
 694:User_BSP/OLED.c ****     {
 1766              		.loc 1 694 12 is_stmt 0 view .LVU443
 1767 001c 0021     		movs	r1, #0
 694:User_BSP/OLED.c ****     {
 1768              		.loc 1 694 5 view .LVU444
 1769 001e 22E0     		b	.L141
 1770              	.LVL175:
 1771              	.L139:
 690:User_BSP/OLED.c ****         Number1 = -Number;                  // Number1зӯүдәҺNumberеҸ–иҙҹ
 1772              		.loc 1 690 9 is_stmt 1 view .LVU445
 1773 0020 3B46     		mov	r3, r7
 1774              	.LVL176:
 690:User_BSP/OLED.c ****         Number1 = -Number;                  // Number1зӯүдәҺNumberеҸ–иҙҹ
 1775              		.loc 1 690 9 is_stmt 0 view .LVU446
 1776 0022 2D22     		movs	r2, #45
ARM GAS  C:\Users\bubble\AppData\Local\Temp\ccRMWmKE.s 			page 51


 1777              	.LVL177:
 690:User_BSP/OLED.c ****         Number1 = -Number;                  // Number1зӯүдәҺNumberеҸ–иҙҹ
 1778              		.loc 1 690 9 view .LVU447
 1779 0024 FFF7FEFF 		bl	OLED_ShowChar
 1780              	.LVL178:
 691:User_BSP/OLED.c ****     }
 1781              		.loc 1 691 9 is_stmt 1 view .LVU448
 691:User_BSP/OLED.c ****     }
 1782              		.loc 1 691 19 is_stmt 0 view .LVU449
 1783 0028 C8F10008 		rsb	r8, r8, #0
 1784              	.LVL179:
 691:User_BSP/OLED.c ****     }
 1785              		.loc 1 691 19 view .LVU450
 1786 002c F6E7     		b	.L140
 1787              	.LVL180:
 1788              	.L142:
 699:User_BSP/OLED.c ****     }
 1789              		.loc 1 699 9 is_stmt 1 discriminator 3 view .LVU451
 1790 002e 4C1C     		adds	r4, r1, #1
 1791 0030 E4B2     		uxtb	r4, r4
 1792 0032 04FB0795 		mla	r5, r4, r7, r9
 1793 0036 EDB2     		uxtb	r5, r5
 699:User_BSP/OLED.c ****     }
 1794              		.loc 1 699 80 is_stmt 0 discriminator 3 view .LVU452
 1795 0038 711A     		subs	r1, r6, r1
 1796              	.LVL181:
 699:User_BSP/OLED.c ****     }
 1797              		.loc 1 699 60 discriminator 3 view .LVU453
 1798 003a 0139     		subs	r1, r1, #1
 1799 003c 0A20     		movs	r0, #10
 1800 003e FFF7FEFF 		bl	OLED_Pow
 1801              	.LVL182:
 699:User_BSP/OLED.c ****     }
 1802              		.loc 1 699 58 discriminator 3 view .LVU454
 1803 0042 B8FBF0F0 		udiv	r0, r8, r0
 699:User_BSP/OLED.c ****     }
 1804              		.loc 1 699 89 discriminator 3 view .LVU455
 1805 0046 0A4A     		ldr	r2, .L144
 1806 0048 A2FB0032 		umull	r3, r2, r2, r0
 1807 004c D208     		lsrs	r2, r2, #3
 1808 004e 02EB8202 		add	r2, r2, r2, lsl #2
 1809 0052 A0EB4202 		sub	r2, r0, r2, lsl #1
 699:User_BSP/OLED.c ****     }
 1810              		.loc 1 699 9 discriminator 3 view .LVU456
 1811 0056 3032     		adds	r2, r2, #48
 1812 0058 3B46     		mov	r3, r7
 1813 005a D2B2     		uxtb	r2, r2
 1814 005c 5146     		mov	r1, r10
 1815 005e 2846     		mov	r0, r5
 1816 0060 FFF7FEFF 		bl	OLED_ShowChar
 1817              	.LVL183:
 694:User_BSP/OLED.c ****     {
 1818              		.loc 1 694 29 is_stmt 1 discriminator 3 view .LVU457
 694:User_BSP/OLED.c ****     {
 1819              		.loc 1 694 30 is_stmt 0 discriminator 3 view .LVU458
 1820 0064 2146     		mov	r1, r4
 1821              	.LVL184:
ARM GAS  C:\Users\bubble\AppData\Local\Temp\ccRMWmKE.s 			page 52


 1822              	.L141:
 694:User_BSP/OLED.c ****     {
 1823              		.loc 1 694 17 is_stmt 1 discriminator 1 view .LVU459
 694:User_BSP/OLED.c ****     {
 1824              		.loc 1 694 5 is_stmt 0 discriminator 1 view .LVU460
 1825 0066 B142     		cmp	r1, r6
 1826 0068 E1D3     		bcc	.L142
 701:User_BSP/OLED.c **** 
 1827              		.loc 1 701 1 view .LVU461
 1828 006a BDE8F087 		pop	{r4, r5, r6, r7, r8, r9, r10, pc}
 1829              	.LVL185:
 1830              	.L145:
 701:User_BSP/OLED.c **** 
 1831              		.loc 1 701 1 view .LVU462
 1832 006e 00BF     		.align	2
 1833              	.L144:
 1834 0070 CDCCCCCC 		.word	-858993459
 1835              		.cfi_endproc
 1836              	.LFE262:
 1838              		.section	.text.OLED_ShowHexNum,"ax",%progbits
 1839              		.align	1
 1840              		.global	OLED_ShowHexNum
 1841              		.syntax unified
 1842              		.thumb
 1843              		.thumb_func
 1845              	OLED_ShowHexNum:
 1846              	.LVL186:
 1847              	.LFB263:
 716:User_BSP/OLED.c ****     uint8_t i, SingleNumber;
 1848              		.loc 1 716 1 is_stmt 1 view -0
 1849              		.cfi_startproc
 1850              		@ args = 4, pretend = 0, frame = 0
 1851              		@ frame_needed = 0, uses_anonymous_args = 0
 716:User_BSP/OLED.c ****     uint8_t i, SingleNumber;
 1852              		.loc 1 716 1 is_stmt 0 view .LVU464
 1853 0000 2DE9F843 		push	{r3, r4, r5, r6, r7, r8, r9, lr}
 1854              	.LCFI32:
 1855              		.cfi_def_cfa_offset 32
 1856              		.cfi_offset 3, -32
 1857              		.cfi_offset 4, -28
 1858              		.cfi_offset 5, -24
 1859              		.cfi_offset 6, -20
 1860              		.cfi_offset 7, -16
 1861              		.cfi_offset 8, -12
 1862              		.cfi_offset 9, -8
 1863              		.cfi_offset 14, -4
 1864 0004 8146     		mov	r9, r0
 1865 0006 8846     		mov	r8, r1
 1866 0008 1746     		mov	r7, r2
 1867 000a 1D46     		mov	r5, r3
 1868 000c 9DF82060 		ldrb	r6, [sp, #32]	@ zero_extendqisi2
 717:User_BSP/OLED.c ****     for (i = 0; i < Length; i++) // йҒҚеҺҶж•°еӯ—зҡ„жҜҸдёҖдҪҚ
 1869              		.loc 1 717 5 is_stmt 1 view .LVU465
 718:User_BSP/OLED.c ****     {
 1870              		.loc 1 718 5 view .LVU466
 1871              	.LVL187:
 718:User_BSP/OLED.c ****     {
ARM GAS  C:\Users\bubble\AppData\Local\Temp\ccRMWmKE.s 			page 53


 1872              		.loc 1 718 12 is_stmt 0 view .LVU467
 1873 0010 0024     		movs	r4, #0
 718:User_BSP/OLED.c ****     {
 1874              		.loc 1 718 5 view .LVU468
 1875 0012 0BE0     		b	.L147
 1876              	.LVL188:
 1877              	.L148:
 732:User_BSP/OLED.c ****         }
 1878              		.loc 1 732 13 is_stmt 1 view .LVU469
 732:User_BSP/OLED.c ****         }
 1879              		.loc 1 732 33 is_stmt 0 view .LVU470
 1880 0014 14FB06F0 		smulbb	r0, r4, r6
 732:User_BSP/OLED.c ****         }
 1881              		.loc 1 732 13 view .LVU471
 1882 0018 59FA80F0 		uxtab	r0, r9, r0
 1883 001c 3346     		mov	r3, r6
 1884 001e 3732     		adds	r2, r2, #55
 1885              	.LVL189:
 732:User_BSP/OLED.c ****         }
 1886              		.loc 1 732 13 view .LVU472
 1887 0020 4146     		mov	r1, r8
 1888 0022 C0B2     		uxtb	r0, r0
 1889 0024 FFF7FEFF 		bl	OLED_ShowChar
 1890              	.LVL190:
 1891              	.L149:
 718:User_BSP/OLED.c ****     {
 1892              		.loc 1 718 29 is_stmt 1 discriminator 2 view .LVU473
 718:User_BSP/OLED.c ****     {
 1893              		.loc 1 718 30 is_stmt 0 discriminator 2 view .LVU474
 1894 0028 0134     		adds	r4, r4, #1
 1895              	.LVL191:
 718:User_BSP/OLED.c ****     {
 1896              		.loc 1 718 30 discriminator 2 view .LVU475
 1897 002a E4B2     		uxtb	r4, r4
 1898              	.LVL192:
 1899              	.L147:
 718:User_BSP/OLED.c ****     {
 1900              		.loc 1 718 17 is_stmt 1 discriminator 1 view .LVU476
 718:User_BSP/OLED.c ****     {
 1901              		.loc 1 718 5 is_stmt 0 discriminator 1 view .LVU477
 1902 002c AC42     		cmp	r4, r5
 1903 002e 15D2     		bcs	.L152
 721:User_BSP/OLED.c **** 
 1904              		.loc 1 721 9 is_stmt 1 view .LVU478
 721:User_BSP/OLED.c **** 
 1905              		.loc 1 721 53 is_stmt 0 view .LVU479
 1906 0030 291B     		subs	r1, r5, r4
 721:User_BSP/OLED.c **** 
 1907              		.loc 1 721 33 view .LVU480
 1908 0032 0139     		subs	r1, r1, #1
 1909 0034 1020     		movs	r0, #16
 1910 0036 FFF7FEFF 		bl	OLED_Pow
 1911              	.LVL193:
 721:User_BSP/OLED.c **** 
 1912              		.loc 1 721 31 view .LVU481
 1913 003a B7FBF0F2 		udiv	r2, r7, r0
 721:User_BSP/OLED.c **** 
ARM GAS  C:\Users\bubble\AppData\Local\Temp\ccRMWmKE.s 			page 54


 1914              		.loc 1 721 22 view .LVU482
 1915 003e 02F00F02 		and	r2, r2, #15
 1916              	.LVL194:
 723:User_BSP/OLED.c ****         {
 1917              		.loc 1 723 9 is_stmt 1 view .LVU483
 723:User_BSP/OLED.c ****         {
 1918              		.loc 1 723 12 is_stmt 0 view .LVU484
 1919 0042 092A     		cmp	r2, #9
 1920 0044 E6D8     		bhi	.L148
 727:User_BSP/OLED.c ****         } else // еҚ•дёӘж•°еӯ—еӨ§дәҺ10
 1921              		.loc 1 727 13 is_stmt 1 view .LVU485
 727:User_BSP/OLED.c ****         } else // еҚ•дёӘж•°еӯ—еӨ§дәҺ10
 1922              		.loc 1 727 33 is_stmt 0 view .LVU486
 1923 0046 14FB06F0 		smulbb	r0, r4, r6
 727:User_BSP/OLED.c ****         } else // еҚ•дёӘж•°еӯ—еӨ§дәҺ10
 1924              		.loc 1 727 13 view .LVU487
 1925 004a 59FA80F0 		uxtab	r0, r9, r0
 1926 004e 3346     		mov	r3, r6
 1927 0050 3032     		adds	r2, r2, #48
 1928              	.LVL195:
 727:User_BSP/OLED.c ****         } else // еҚ•дёӘж•°еӯ—еӨ§дәҺ10
 1929              		.loc 1 727 13 view .LVU488
 1930 0052 4146     		mov	r1, r8
 1931 0054 C0B2     		uxtb	r0, r0
 1932 0056 FFF7FEFF 		bl	OLED_ShowChar
 1933              	.LVL196:
 727:User_BSP/OLED.c ****         } else // еҚ•дёӘж•°еӯ—еӨ§дәҺ10
 1934              		.loc 1 727 13 view .LVU489
 1935 005a E5E7     		b	.L149
 1936              	.L152:
 735:User_BSP/OLED.c **** 
 1937              		.loc 1 735 1 view .LVU490
 1938 005c BDE8F883 		pop	{r3, r4, r5, r6, r7, r8, r9, pc}
 735:User_BSP/OLED.c **** 
 1939              		.loc 1 735 1 view .LVU491
 1940              		.cfi_endproc
 1941              	.LFE263:
 1943              		.section	.text.OLED_ShowBinNum,"ax",%progbits
 1944              		.align	1
 1945              		.global	OLED_ShowBinNum
 1946              		.syntax unified
 1947              		.thumb
 1948              		.thumb_func
 1950              	OLED_ShowBinNum:
 1951              	.LVL197:
 1952              	.LFB264:
 750:User_BSP/OLED.c ****     uint8_t i;
 1953              		.loc 1 750 1 is_stmt 1 view -0
 1954              		.cfi_startproc
 1955              		@ args = 4, pretend = 0, frame = 0
 1956              		@ frame_needed = 0, uses_anonymous_args = 0
 750:User_BSP/OLED.c ****     uint8_t i;
 1957              		.loc 1 750 1 is_stmt 0 view .LVU493
 1958 0000 2DE9F047 		push	{r4, r5, r6, r7, r8, r9, r10, lr}
 1959              	.LCFI33:
 1960              		.cfi_def_cfa_offset 32
 1961              		.cfi_offset 4, -32
ARM GAS  C:\Users\bubble\AppData\Local\Temp\ccRMWmKE.s 			page 55


 1962              		.cfi_offset 5, -28
 1963              		.cfi_offset 6, -24
 1964              		.cfi_offset 7, -20
 1965              		.cfi_offset 8, -16
 1966              		.cfi_offset 9, -12
 1967              		.cfi_offset 10, -8
 1968              		.cfi_offset 14, -4
 1969 0004 8246     		mov	r10, r0
 1970 0006 8946     		mov	r9, r1
 1971 0008 9046     		mov	r8, r2
 1972 000a 1E46     		mov	r6, r3
 1973 000c 9DF82070 		ldrb	r7, [sp, #32]	@ zero_extendqisi2
 751:User_BSP/OLED.c ****     for (i = 0; i < Length; i++) // йҒҚеҺҶж•°еӯ—зҡ„жҜҸдёҖдҪҚ
 1974              		.loc 1 751 5 is_stmt 1 view .LVU494
 752:User_BSP/OLED.c ****     {
 1975              		.loc 1 752 5 view .LVU495
 1976              	.LVL198:
 752:User_BSP/OLED.c ****     {
 1977              		.loc 1 752 12 is_stmt 0 view .LVU496
 1978 0010 0024     		movs	r4, #0
 752:User_BSP/OLED.c ****     {
 1979              		.loc 1 752 5 view .LVU497
 1980 0012 15E0     		b	.L154
 1981              	.LVL199:
 1982              	.L155:
 757:User_BSP/OLED.c ****     }
 1983              		.loc 1 757 9 is_stmt 1 discriminator 3 view .LVU498
 757:User_BSP/OLED.c ****     }
 1984              		.loc 1 757 29 is_stmt 0 discriminator 3 view .LVU499
 1985 0014 14FB07F5 		smulbb	r5, r4, r7
 757:User_BSP/OLED.c ****     }
 1986              		.loc 1 757 9 discriminator 3 view .LVU500
 1987 0018 5AFA85F5 		uxtab	r5, r10, r5
 1988 001c EDB2     		uxtb	r5, r5
 757:User_BSP/OLED.c ****     }
 1989              		.loc 1 757 72 discriminator 3 view .LVU501
 1990 001e 311B     		subs	r1, r6, r4
 757:User_BSP/OLED.c ****     }
 1991              		.loc 1 757 53 discriminator 3 view .LVU502
 1992 0020 0139     		subs	r1, r1, #1
 1993 0022 0220     		movs	r0, #2
 1994 0024 FFF7FEFF 		bl	OLED_Pow
 1995              	.LVL200:
 757:User_BSP/OLED.c ****     }
 1996              		.loc 1 757 51 discriminator 3 view .LVU503
 1997 0028 B8FBF0F2 		udiv	r2, r8, r0
 757:User_BSP/OLED.c ****     }
 1998              		.loc 1 757 81 discriminator 3 view .LVU504
 1999 002c 02F00102 		and	r2, r2, #1
 757:User_BSP/OLED.c ****     }
 2000              		.loc 1 757 9 discriminator 3 view .LVU505
 2001 0030 3B46     		mov	r3, r7
 2002 0032 3032     		adds	r2, r2, #48
 2003 0034 4946     		mov	r1, r9
 2004 0036 2846     		mov	r0, r5
 2005 0038 FFF7FEFF 		bl	OLED_ShowChar
 2006              	.LVL201:
ARM GAS  C:\Users\bubble\AppData\Local\Temp\ccRMWmKE.s 			page 56


 752:User_BSP/OLED.c ****     {
 2007              		.loc 1 752 29 is_stmt 1 discriminator 3 view .LVU506
 752:User_BSP/OLED.c ****     {
 2008              		.loc 1 752 30 is_stmt 0 discriminator 3 view .LVU507
 2009 003c 0134     		adds	r4, r4, #1
 2010              	.LVL202:
 752:User_BSP/OLED.c ****     {
 2011              		.loc 1 752 30 discriminator 3 view .LVU508
 2012 003e E4B2     		uxtb	r4, r4
 2013              	.LVL203:
 2014              	.L154:
 752:User_BSP/OLED.c ****     {
 2015              		.loc 1 752 17 is_stmt 1 discriminator 1 view .LVU509
 752:User_BSP/OLED.c ****     {
 2016              		.loc 1 752 5 is_stmt 0 discriminator 1 view .LVU510
 2017 0040 B442     		cmp	r4, r6
 2018 0042 E7D3     		bcc	.L155
 759:User_BSP/OLED.c **** 
 2019              		.loc 1 759 1 view .LVU511
 2020 0044 BDE8F087 		pop	{r4, r5, r6, r7, r8, r9, r10, pc}
 759:User_BSP/OLED.c **** 
 2021              		.loc 1 759 1 view .LVU512
 2022              		.cfi_endproc
 2023              	.LFE264:
 2025              		.global	__aeabi_dcmpge
 2026              		.global	__aeabi_d2uiz
 2027              		.global	__aeabi_ui2d
 2028              		.global	__aeabi_dsub
 2029              		.section	.text.OLED_ShowFloatNum,"ax",%progbits
 2030              		.align	1
 2031              		.global	OLED_ShowFloatNum
 2032              		.syntax unified
 2033              		.thumb
 2034              		.thumb_func
 2036              	OLED_ShowFloatNum:
 2037              	.LVL204:
 2038              	.LFB265:
 775:User_BSP/OLED.c ****     uint32_t PowNum, IntNum, FraNum;
 2039              		.loc 1 775 1 is_stmt 1 view -0
 2040              		.cfi_startproc
 2041              		@ args = 4, pretend = 0, frame = 8
 2042              		@ frame_needed = 0, uses_anonymous_args = 0
 775:User_BSP/OLED.c ****     uint32_t PowNum, IntNum, FraNum;
 2043              		.loc 1 775 1 is_stmt 0 view .LVU514
 2044 0000 2DE9F04F 		push	{r4, r5, r6, r7, r8, r9, r10, fp, lr}
 2045              	.LCFI34:
 2046              		.cfi_def_cfa_offset 36
 2047              		.cfi_offset 4, -36
 2048              		.cfi_offset 5, -32
 2049              		.cfi_offset 6, -28
 2050              		.cfi_offset 7, -24
 2051              		.cfi_offset 8, -20
 2052              		.cfi_offset 9, -16
 2053              		.cfi_offset 10, -12
 2054              		.cfi_offset 11, -8
 2055              		.cfi_offset 14, -4
 2056 0004 85B0     		sub	sp, sp, #20
ARM GAS  C:\Users\bubble\AppData\Local\Temp\ccRMWmKE.s 			page 57


 2057              	.LCFI35:
 2058              		.cfi_def_cfa_offset 56
 2059 0006 0446     		mov	r4, r0
 2060 0008 0F46     		mov	r7, r1
 2061 000a 59EC108B 		vmov	r8, r9, d0
 2062 000e 1646     		mov	r6, r2
 2063 0010 9A46     		mov	r10, r3
 2064 0012 9DF83850 		ldrb	r5, [sp, #56]	@ zero_extendqisi2
 776:User_BSP/OLED.c **** 
 2065              		.loc 1 776 5 is_stmt 1 view .LVU515
 778:User_BSP/OLED.c ****     {
 2066              		.loc 1 778 5 view .LVU516
 778:User_BSP/OLED.c ****     {
 2067              		.loc 1 778 8 is_stmt 0 view .LVU517
 2068 0016 0022     		movs	r2, #0
 2069              	.LVL205:
 778:User_BSP/OLED.c ****     {
 2070              		.loc 1 778 8 view .LVU518
 2071 0018 0023     		movs	r3, #0
 2072              	.LVL206:
 778:User_BSP/OLED.c ****     {
 2073              		.loc 1 778 8 view .LVU519
 2074 001a 10EE100A 		vmov	r0, s0	@ int
 2075              	.LVL207:
 778:User_BSP/OLED.c ****     {
 2076              		.loc 1 778 8 view .LVU520
 2077 001e 4946     		mov	r1, r9
 2078              	.LVL208:
 778:User_BSP/OLED.c ****     {
 2079              		.loc 1 778 8 view .LVU521
 2080 0020 FFF7FEFF 		bl	__aeabi_dcmpge
 2081              	.LVL209:
 778:User_BSP/OLED.c ****     {
 2082              		.loc 1 778 8 view .LVU522
 2083 0024 0028     		cmp	r0, #0
 2084 0026 48D0     		beq	.L162
 780:User_BSP/OLED.c ****     } else                                  // ж•°еӯ—е°ҸдәҺ0
 2085              		.loc 1 780 9 is_stmt 1 view .LVU523
 2086 0028 2B46     		mov	r3, r5
 2087 002a 2B22     		movs	r2, #43
 2088 002c 3946     		mov	r1, r7
 2089 002e 2046     		mov	r0, r4
 2090 0030 FFF7FEFF 		bl	OLED_ShowChar
 2091              	.LVL210:
 2092              	.L160:
 788:User_BSP/OLED.c ****     Number -= IntNum;                 // е°ҶNumberзҡ„ж•ҙж•°еҮҸжҺүпјҢйҳІжӯўд№ӢеҗҺе°Ҷе°Ҹж•°д№ҳеҲ°ж•ҙж
 2093              		.loc 1 788 5 view .LVU524
 788:User_BSP/OLED.c ****     Number -= IntNum;                 // е°ҶNumberзҡ„ж•ҙж•°еҮҸжҺүпјҢйҳІжӯўд№ӢеҗҺе°Ҷе°Ҹж•°д№ҳеҲ°ж•ҙж
 2094              		.loc 1 788 12 is_stmt 0 view .LVU525
 2095 0034 4046     		mov	r0, r8
 2096 0036 4946     		mov	r1, r9
 2097 0038 FFF7FEFF 		bl	__aeabi_d2uiz
 2098              	.LVL211:
 2099 003c 8346     		mov	fp, r0
 2100              	.LVL212:
 789:User_BSP/OLED.c ****     PowNum = OLED_Pow(10, FraLength); // ж №жҚ®жҢҮе®ҡе°Ҹж•°зҡ„дҪҚж•°пјҢзЎ®е®ҡд№ҳж•°
 2101              		.loc 1 789 5 is_stmt 1 view .LVU526
ARM GAS  C:\Users\bubble\AppData\Local\Temp\ccRMWmKE.s 			page 58


 789:User_BSP/OLED.c ****     PowNum = OLED_Pow(10, FraLength); // ж №жҚ®жҢҮе®ҡе°Ҹж•°зҡ„дҪҚж•°пјҢзЎ®е®ҡд№ҳж•°
 2102              		.loc 1 789 12 is_stmt 0 view .LVU527
 2103 003e FFF7FEFF 		bl	__aeabi_ui2d
 2104              	.LVL213:
 789:User_BSP/OLED.c ****     PowNum = OLED_Pow(10, FraLength); // ж №жҚ®жҢҮе®ҡе°Ҹж•°зҡ„дҪҚж•°пјҢзЎ®е®ҡд№ҳж•°
 2105              		.loc 1 789 12 view .LVU528
 2106 0042 0246     		mov	r2, r0
 2107 0044 0B46     		mov	r3, r1
 2108 0046 4046     		mov	r0, r8
 2109 0048 4946     		mov	r1, r9
 2110 004a FFF7FEFF 		bl	__aeabi_dsub
 2111              	.LVL214:
 2112 004e CDE90201 		strd	r0, [sp, #8]
 2113              	.LVL215:
 790:User_BSP/OLED.c ****     FraNum = round(Number * PowNum);  // е°Ҷе°Ҹж•°д№ҳеҲ°ж•ҙж•°пјҢеҗҢж—¶еӣӣиҲҚдә”е…ҘпјҢйҒҝе…ҚжҳҫзӨәи
 2114              		.loc 1 790 5 is_stmt 1 view .LVU529
 790:User_BSP/OLED.c ****     FraNum = round(Number * PowNum);  // е°Ҷе°Ҹж•°д№ҳеҲ°ж•ҙж•°пјҢеҗҢж—¶еӣӣиҲҚдә”е…ҘпјҢйҒҝе…ҚжҳҫзӨәи
 2115              		.loc 1 790 14 is_stmt 0 view .LVU530
 2116 0052 5146     		mov	r1, r10
 2117 0054 0A20     		movs	r0, #10
 2118              	.LVL216:
 790:User_BSP/OLED.c ****     FraNum = round(Number * PowNum);  // е°Ҷе°Ҹж•°д№ҳеҲ°ж•ҙж•°пјҢеҗҢж—¶еӣӣиҲҚдә”е…ҘпјҢйҒҝе…ҚжҳҫзӨәи
 2119              		.loc 1 790 14 view .LVU531
 2120 0056 FFF7FEFF 		bl	OLED_Pow
 2121              	.LVL217:
 2122 005a 8046     		mov	r8, r0
 2123              	.LVL218:
 791:User_BSP/OLED.c ****     IntNum += FraNum / PowNum;        // иӢҘеӣӣиҲҚдә”е…ҘйҖ жҲҗдәҶиҝӣдҪҚпјҢеҲҷйңҖиҰҒеҶҚеҠ з»ҷж•ҙж•°
 2124              		.loc 1 791 5 is_stmt 1 view .LVU532
 791:User_BSP/OLED.c ****     IntNum += FraNum / PowNum;        // иӢҘеӣӣиҲҚдә”е…ҘйҖ жҲҗдәҶиҝӣдҪҚпјҢеҲҷйңҖиҰҒеҶҚеҠ з»ҷж•ҙж•°
 2125              		.loc 1 791 14 is_stmt 0 view .LVU533
 2126 005c FFF7FEFF 		bl	__aeabi_ui2d
 2127              	.LVL219:
 791:User_BSP/OLED.c ****     IntNum += FraNum / PowNum;        // иӢҘеӣӣиҲҚдә”е…ҘйҖ жҲҗдәҶиҝӣдҪҚпјҢеҲҷйңҖиҰҒеҶҚеҠ з»ҷж•ҙж•°
 2128              		.loc 1 791 14 view .LVU534
 2129 0060 DDE90223 		ldrd	r2, [sp, #8]
 2130 0064 FFF7FEFF 		bl	__aeabi_dmul
 2131              	.LVL220:
 2132 0068 41EC100B 		vmov	d0, r0, r1
 2133 006c FFF7FEFF 		bl	round
 2134              	.LVL221:
 2135 0070 51EC100B 		vmov	r0, r1, d0
 791:User_BSP/OLED.c ****     IntNum += FraNum / PowNum;        // иӢҘеӣӣиҲҚдә”е…ҘйҖ жҲҗдәҶиҝӣдҪҚпјҢеҲҷйңҖиҰҒеҶҚеҠ з»ҷж•ҙж•°
 2136              		.loc 1 791 12 view .LVU535
 2137 0074 FFF7FEFF 		bl	__aeabi_d2uiz
 2138              	.LVL222:
 2139 0078 8146     		mov	r9, r0
 2140              	.LVL223:
 792:User_BSP/OLED.c **** 
 2141              		.loc 1 792 5 is_stmt 1 view .LVU536
 792:User_BSP/OLED.c **** 
 2142              		.loc 1 792 22 is_stmt 0 view .LVU537
 2143 007a B0FBF8F2 		udiv	r2, r0, r8
 2144              	.LVL224:
 795:User_BSP/OLED.c **** 
 2145              		.loc 1 795 5 is_stmt 1 view .LVU538
 2146 007e 6019     		adds	r0, r4, r5
ARM GAS  C:\Users\bubble\AppData\Local\Temp\ccRMWmKE.s 			page 59


 2147              	.LVL225:
 795:User_BSP/OLED.c **** 
 2148              		.loc 1 795 5 is_stmt 0 view .LVU539
 2149 0080 0095     		str	r5, [sp]
 2150 0082 3346     		mov	r3, r6
 2151 0084 5A44     		add	r2, r2, fp
 2152              	.LVL226:
 795:User_BSP/OLED.c **** 
 2153              		.loc 1 795 5 view .LVU540
 2154 0086 3946     		mov	r1, r7
 2155 0088 C0B2     		uxtb	r0, r0
 2156 008a FFF7FEFF 		bl	OLED_ShowNum
 2157              	.LVL227:
 798:User_BSP/OLED.c **** 
 2158              		.loc 1 798 5 is_stmt 1 view .LVU541
 2159 008e 06FB0550 		mla	r0, r6, r5, r5
 2160 0092 2044     		add	r0, r0, r4
 2161 0094 2B46     		mov	r3, r5
 2162 0096 2E22     		movs	r2, #46
 2163 0098 3946     		mov	r1, r7
 2164 009a C0B2     		uxtb	r0, r0
 2165 009c FFF7FEFF 		bl	OLED_ShowChar
 2166              	.LVL228:
 801:User_BSP/OLED.c **** }
 2167              		.loc 1 801 5 view .LVU542
 2168 00a0 B01C     		adds	r0, r6, #2
 2169 00a2 00FB0540 		mla	r0, r0, r5, r4
 2170 00a6 0095     		str	r5, [sp]
 2171 00a8 5346     		mov	r3, r10
 2172 00aa 4A46     		mov	r2, r9
 2173 00ac 3946     		mov	r1, r7
 2174 00ae C0B2     		uxtb	r0, r0
 2175 00b0 FFF7FEFF 		bl	OLED_ShowNum
 2176              	.LVL229:
 802:User_BSP/OLED.c **** 
 2177              		.loc 1 802 1 is_stmt 0 view .LVU543
 2178 00b4 05B0     		add	sp, sp, #20
 2179              	.LCFI36:
 2180              		.cfi_remember_state
 2181              		.cfi_def_cfa_offset 36
 2182              		@ sp needed
 2183 00b6 BDE8F08F 		pop	{r4, r5, r6, r7, r8, r9, r10, fp, pc}
 2184              	.LVL230:
 2185              	.L162:
 2186              	.LCFI37:
 2187              		.cfi_restore_state
 783:User_BSP/OLED.c ****         Number = -Number;                   // NumberеҸ–иҙҹ
 2188              		.loc 1 783 9 is_stmt 1 view .LVU544
 2189 00ba 2B46     		mov	r3, r5
 2190 00bc 2D22     		movs	r2, #45
 2191 00be 3946     		mov	r1, r7
 2192 00c0 2046     		mov	r0, r4
 2193 00c2 FFF7FEFF 		bl	OLED_ShowChar
 2194              	.LVL231:
 784:User_BSP/OLED.c ****     }
 2195              		.loc 1 784 9 view .LVU545
 784:User_BSP/OLED.c ****     }
ARM GAS  C:\Users\bubble\AppData\Local\Temp\ccRMWmKE.s 			page 60


 2196              		.loc 1 784 16 is_stmt 0 view .LVU546
 2197 00c6 09F10043 		add	r3, r9, #-2147483648
 2198 00ca 9946     		mov	r9, r3
 2199              	.LVL232:
 784:User_BSP/OLED.c ****     }
 2200              		.loc 1 784 16 view .LVU547
 2201 00cc B2E7     		b	.L160
 2202              		.cfi_endproc
 2203              	.LFE265:
 2205              		.section	.text.OLED_Printf,"ax",%progbits
 2206              		.align	1
 2207              		.global	OLED_Printf
 2208              		.syntax unified
 2209              		.thumb
 2210              		.thumb_func
 2212              	OLED_Printf:
 2213              	.LVL233:
 2214              	.LFB267:
 888:User_BSP/OLED.c **** 
 889:User_BSP/OLED.c **** /**
 890:User_BSP/OLED.c ****  * @brief OLEDдҪҝз”ЁprintfеҮҪж•°жү“еҚ°ж јејҸеҢ–еӯ—з¬ҰдёІ
 891:User_BSP/OLED.c ****  * @param X жҢҮе®ҡж јејҸеҢ–еӯ—з¬ҰдёІе·ҰдёҠи§’зҡ„жЁӘеқҗж ҮпјҢиҢғеӣҙпјҡ0-127
 892:User_BSP/OLED.c ****  * @param Y жҢҮе®ҡж јејҸеҢ–еӯ—з¬ҰдёІе·ҰдёҠи§’зҡ„зәөеқҗж ҮпјҢиҢғеӣҙпјҡ0-63
 893:User_BSP/OLED.c ****  * @param FontSize жҢҮе®ҡеӯ—дҪ“еӨ§е°Ҹ
 894:User_BSP/OLED.c ****  *           иҢғеӣҙпјҡOLED_8X16		е®Ҫ8еғҸзҙ пјҢй«ҳ16еғҸзҙ 
 895:User_BSP/OLED.c ****  *                 OLED_6X8		е®Ҫ6еғҸзҙ пјҢй«ҳ8еғҸзҙ 
 896:User_BSP/OLED.c ****  * @param format жҢҮе®ҡиҰҒжҳҫзӨәзҡ„ж јејҸеҢ–еӯ—з¬ҰдёІпјҢиҢғеӣҙпјҡASCIIз ҒеҸҜи§Ғеӯ—з¬Ұз»„жҲҗзҡ„еӯ—з¬
 897:User_BSP/OLED.c ****  * @param ... ж јејҸеҢ–еӯ—з¬ҰдёІеҸӮж•°еҲ—иЎЁ
 898:User_BSP/OLED.c ****  * @return ж— 
 899:User_BSP/OLED.c ****  * @note и°ғз”ЁжӯӨеҮҪж•°еҗҺпјҢиҰҒжғізңҹжӯЈең°е‘ҲзҺ°еңЁеұҸе№•дёҠпјҢиҝҳйңҖи°ғз”Ёжӣҙж–°еҮҪж•°
 900:User_BSP/OLED.c ****  */
 901:User_BSP/OLED.c **** void OLED_Printf(uint8_t X, uint8_t Y, uint8_t FontSize, char *format, ...)
 902:User_BSP/OLED.c **** {
 2215              		.loc 1 902 1 is_stmt 1 view -0
 2216              		.cfi_startproc
 2217              		@ args = 4, pretend = 4, frame = 40
 2218              		@ frame_needed = 0, uses_anonymous_args = 1
 2219              		.loc 1 902 1 is_stmt 0 view .LVU549
 2220 0000 08B4     		push	{r3}
 2221              	.LCFI38:
 2222              		.cfi_def_cfa_offset 4
 2223              		.cfi_offset 3, -4
 2224 0002 70B5     		push	{r4, r5, r6, lr}
 2225              	.LCFI39:
 2226              		.cfi_def_cfa_offset 20
 2227              		.cfi_offset 4, -20
 2228              		.cfi_offset 5, -16
 2229              		.cfi_offset 6, -12
 2230              		.cfi_offset 14, -8
 2231 0004 8BB0     		sub	sp, sp, #44
 2232              	.LCFI40:
 2233              		.cfi_def_cfa_offset 64
 2234 0006 0446     		mov	r4, r0
 2235 0008 0D46     		mov	r5, r1
 2236 000a 1646     		mov	r6, r2
 2237 000c 0FAA     		add	r2, sp, #60
 2238 000e 52F8041B 		ldr	r1, [r2], #4
ARM GAS  C:\Users\bubble\AppData\Local\Temp\ccRMWmKE.s 			page 61


 2239              	.LVL234:
 903:User_BSP/OLED.c ****     char String[30];                         // е®ҡд№үеӯ—з¬Ұж•°з»„
 2240              		.loc 1 903 5 is_stmt 1 view .LVU550
 904:User_BSP/OLED.c ****     va_list arg;                             // е®ҡд№үеҸҜеҸҳеҸӮж•°еҲ—иЎЁж•°жҚ®зұ»еһӢзҡ„еҸҳйҮҸarg
 2241              		.loc 1 904 5 view .LVU551
 905:User_BSP/OLED.c ****     va_start(arg, format);                   // д»ҺformatејҖе§ӢпјҢжҺҘж”¶еҸӮж•°еҲ—иЎЁеҲ°argеҸҳйҮҸ
 2242              		.loc 1 905 5 view .LVU552
 2243 0012 0192     		str	r2, [sp, #4]
 906:User_BSP/OLED.c ****     vsprintf(String, format, arg);           // дҪҝз”Ёvsprintfжү“еҚ°ж јејҸеҢ–еӯ—з¬ҰдёІе’ҢеҸӮж•°еҲ—и
 2244              		.loc 1 906 5 view .LVU553
 2245 0014 02A8     		add	r0, sp, #8
 2246 0016 FFF7FEFF 		bl	vsprintf
 2247              	.LVL235:
 907:User_BSP/OLED.c ****     va_end(arg);                             // з»“жқҹеҸҳйҮҸarg
 2248              		.loc 1 907 5 view .LVU554
 908:User_BSP/OLED.c ****     OLED_ShowString(X, Y, String, FontSize); // OLEDжҳҫзӨәеӯ—з¬Ұж•°з»„пјҲеӯ—з¬ҰдёІпјү
 2249              		.loc 1 908 5 view .LVU555
 2250 001a 3346     		mov	r3, r6
 2251 001c 02AA     		add	r2, sp, #8
 2252 001e 2946     		mov	r1, r5
 2253 0020 2046     		mov	r0, r4
 2254 0022 FFF7FEFF 		bl	OLED_ShowString
 2255              	.LVL236:
 909:User_BSP/OLED.c **** }
 2256              		.loc 1 909 1 is_stmt 0 view .LVU556
 2257 0026 0BB0     		add	sp, sp, #44
 2258              	.LCFI41:
 2259              		.cfi_def_cfa_offset 20
 2260              		@ sp needed
 2261 0028 BDE87040 		pop	{r4, r5, r6, lr}
 2262              	.LCFI42:
 2263              		.cfi_restore 14
 2264              		.cfi_restore 6
 2265              		.cfi_restore 5
 2266              		.cfi_restore 4
 2267              		.cfi_def_cfa_offset 4
 2268 002c 01B0     		add	sp, sp, #4
 2269              	.LCFI43:
 2270              		.cfi_restore 3
 2271              		.cfi_def_cfa_offset 0
 2272 002e 7047     		bx	lr
 2273              		.cfi_endproc
 2274              	.LFE267:
 2276              		.section	.text.OLED_DrawPoint,"ax",%progbits
 2277              		.align	1
 2278              		.global	OLED_DrawPoint
 2279              		.syntax unified
 2280              		.thumb
 2281              		.thumb_func
 2283              	OLED_DrawPoint:
 2284              	.LVL237:
 2285              	.LFB268:
 910:User_BSP/OLED.c **** 
 911:User_BSP/OLED.c **** /**
 912:User_BSP/OLED.c ****  * @brief OLEDеңЁжҢҮе®ҡдҪҚзҪ®з”»дёҖдёӘзӮ№
 913:User_BSP/OLED.c ****  * @param X жҢҮе®ҡзӮ№зҡ„жЁӘеқҗж ҮпјҢиҢғеӣҙпјҡ0-127
 914:User_BSP/OLED.c ****  * @param Y жҢҮе®ҡзӮ№зҡ„зәөеқҗж ҮпјҢиҢғеӣҙпјҡ0-63
ARM GAS  C:\Users\bubble\AppData\Local\Temp\ccRMWmKE.s 			page 62


 915:User_BSP/OLED.c ****  * @return ж— 
 916:User_BSP/OLED.c ****  * @note и°ғз”ЁжӯӨеҮҪж•°еҗҺпјҢиҰҒжғізңҹжӯЈең°е‘ҲзҺ°еңЁеұҸе№•дёҠпјҢиҝҳйңҖи°ғз”Ёжӣҙж–°еҮҪж•°
 917:User_BSP/OLED.c ****  */
 918:User_BSP/OLED.c **** void OLED_DrawPoint(uint8_t X, uint8_t Y)
 919:User_BSP/OLED.c **** {
 2286              		.loc 1 919 1 is_stmt 1 view -0
 2287              		.cfi_startproc
 2288              		@ args = 0, pretend = 0, frame = 0
 2289              		@ frame_needed = 0, uses_anonymous_args = 0
 2290              		@ link register save eliminated.
 920:User_BSP/OLED.c ****     /*еҸӮж•°жЈҖжҹҘпјҢдҝқиҜҒжҢҮе®ҡдҪҚзҪ®дёҚдјҡи¶…еҮәеұҸе№•иҢғеӣҙ*/
 921:User_BSP/OLED.c ****     if (X > 127) { return; }
 2291              		.loc 1 921 5 view .LVU558
 2292              		.loc 1 921 8 is_stmt 0 view .LVU559
 2293 0000 10F0800F 		tst	r0, #128
 2294 0004 0DD1     		bne	.L166
 922:User_BSP/OLED.c ****     if (Y > 63) { return; }
 2295              		.loc 1 922 5 is_stmt 1 view .LVU560
 2296              		.loc 1 922 8 is_stmt 0 view .LVU561
 2297 0006 3F29     		cmp	r1, #63
 2298 0008 0BD8     		bhi	.L166
 923:User_BSP/OLED.c **** 
 924:User_BSP/OLED.c ****     /*е°Ҷжҳҫеӯҳж•°з»„жҢҮе®ҡдҪҚзҪ®зҡ„дёҖдёӘBitж•°жҚ®зҪ®1*/
 925:User_BSP/OLED.c ****     OLED_DisplayBuf[Y / 8][X] |= 0x01 << (Y % 8);
 2299              		.loc 1 925 5 is_stmt 1 view .LVU562
 2300              		.loc 1 925 31 is_stmt 0 view .LVU563
 2301 000a 4FEAD10C 		lsr	ip, r1, #3
 2302              		.loc 1 925 45 view .LVU564
 2303 000e 01F00701 		and	r1, r1, #7
 2304              	.LVL238:
 2305              		.loc 1 925 39 view .LVU565
 2306 0012 0122     		movs	r2, #1
 2307 0014 8A40     		lsls	r2, r2, r1
 2308              		.loc 1 925 31 view .LVU566
 2309 0016 034B     		ldr	r3, .L168
 2310 0018 03EBCC13 		add	r3, r3, ip, lsl #7
 2311 001c 195C     		ldrb	r1, [r3, r0]	@ zero_extendqisi2
 2312 001e 1143     		orrs	r1, r1, r2
 2313 0020 1954     		strb	r1, [r3, r0]
 2314              	.L166:
 926:User_BSP/OLED.c **** }
 2315              		.loc 1 926 1 view .LVU567
 2316 0022 7047     		bx	lr
 2317              	.L169:
 2318              		.align	2
 2319              	.L168:
 2320 0024 00000000 		.word	.LANCHOR0
 2321              		.cfi_endproc
 2322              	.LFE268:
 2324              		.section	.text.OLED_GetPoint,"ax",%progbits
 2325              		.align	1
 2326              		.global	OLED_GetPoint
 2327              		.syntax unified
 2328              		.thumb
 2329              		.thumb_func
 2331              	OLED_GetPoint:
 2332              	.LVL239:
ARM GAS  C:\Users\bubble\AppData\Local\Temp\ccRMWmKE.s 			page 63


 2333              	.LFB269:
 927:User_BSP/OLED.c **** 
 928:User_BSP/OLED.c **** /**
 929:User_BSP/OLED.c ****  * @brief OLEDиҺ·еҸ–жҢҮе®ҡдҪҚзҪ®зӮ№зҡ„еҖј
 930:User_BSP/OLED.c ****  * @param X жҢҮе®ҡзӮ№зҡ„жЁӘеқҗж ҮпјҢиҢғеӣҙпјҡ0-127
 931:User_BSP/OLED.c ****  * @param Y жҢҮе®ҡзӮ№зҡ„зәөеқҗж ҮпјҢиҢғеӣҙпјҡ0-63
 932:User_BSP/OLED.c ****  * @return жҢҮе®ҡдҪҚзҪ®зӮ№жҳҜеҗҰеӨ„дәҺзӮ№дә®зҠ¶жҖҒпјҢ1пјҡзӮ№дә®пјҢ0пјҡзҶ„зҒӯ
 933:User_BSP/OLED.c ****  */
 934:User_BSP/OLED.c **** uint8_t OLED_GetPoint(uint8_t X, uint8_t Y)
 935:User_BSP/OLED.c **** {
 2334              		.loc 1 935 1 is_stmt 1 view -0
 2335              		.cfi_startproc
 2336              		@ args = 0, pretend = 0, frame = 0
 2337              		@ frame_needed = 0, uses_anonymous_args = 0
 2338              		@ link register save eliminated.
 936:User_BSP/OLED.c ****     /*еҸӮж•°жЈҖжҹҘпјҢдҝқиҜҒжҢҮе®ҡдҪҚзҪ®дёҚдјҡи¶…еҮәеұҸе№•иҢғеӣҙ*/
 937:User_BSP/OLED.c ****     if (X > 127) { return 0; }
 2339              		.loc 1 937 5 view .LVU569
 2340              		.loc 1 937 8 is_stmt 0 view .LVU570
 2341 0000 10F0800F 		tst	r0, #128
 2342 0004 0FD1     		bne	.L172
 938:User_BSP/OLED.c ****     if (Y > 63) { return 0; }
 2343              		.loc 1 938 5 is_stmt 1 view .LVU571
 2344              		.loc 1 938 8 is_stmt 0 view .LVU572
 2345 0006 3F29     		cmp	r1, #63
 2346 0008 0FD8     		bhi	.L173
 939:User_BSP/OLED.c **** 
 940:User_BSP/OLED.c ****     /*еҲӨж–ӯжҢҮе®ҡдҪҚзҪ®зҡ„ж•°жҚ®*/
 941:User_BSP/OLED.c ****     if (OLED_DisplayBuf[Y / 8][X] & 0x01 << (Y % 8)) {
 2347              		.loc 1 941 5 is_stmt 1 view .LVU573
 2348              		.loc 1 941 27 is_stmt 0 view .LVU574
 2349 000a CA08     		lsrs	r2, r1, #3
 2350              		.loc 1 941 31 view .LVU575
 2351 000c 094B     		ldr	r3, .L175
 2352 000e 03EBC213 		add	r3, r3, r2, lsl #7
 2353 0012 1B5C     		ldrb	r3, [r3, r0]	@ zero_extendqisi2
 2354              		.loc 1 941 48 view .LVU576
 2355 0014 01F00701 		and	r1, r1, #7
 2356              	.LVL240:
 2357              		.loc 1 941 9 view .LVU577
 2358 0018 43FA01F1 		asr	r1, r3, r1
 2359              		.loc 1 941 8 view .LVU578
 2360 001c 11F0010F 		tst	r1, #1
 2361 0020 05D1     		bne	.L174
 942:User_BSP/OLED.c ****         return 1; // дёә1пјҢиҝ”еӣһ1
 943:User_BSP/OLED.c ****     }
 944:User_BSP/OLED.c **** 
 945:User_BSP/OLED.c ****     return 0; // еҗҰеҲҷпјҢиҝ”еӣһ0
 2362              		.loc 1 945 12 view .LVU579
 2363 0022 0020     		movs	r0, #0
 2364              	.LVL241:
 2365              		.loc 1 945 12 view .LVU580
 2366 0024 7047     		bx	lr
 2367              	.LVL242:
 2368              	.L172:
 937:User_BSP/OLED.c ****     if (Y > 63) { return 0; }
 2369              		.loc 1 937 27 view .LVU581
ARM GAS  C:\Users\bubble\AppData\Local\Temp\ccRMWmKE.s 			page 64


 2370 0026 0020     		movs	r0, #0
 2371              	.LVL243:
 937:User_BSP/OLED.c ****     if (Y > 63) { return 0; }
 2372              		.loc 1 937 27 view .LVU582
 2373 0028 7047     		bx	lr
 2374              	.LVL244:
 2375              	.L173:
 938:User_BSP/OLED.c **** 
 2376              		.loc 1 938 26 view .LVU583
 2377 002a 0020     		movs	r0, #0
 2378              	.LVL245:
 938:User_BSP/OLED.c **** 
 2379              		.loc 1 938 26 view .LVU584
 2380 002c 7047     		bx	lr
 2381              	.LVL246:
 2382              	.L174:
 942:User_BSP/OLED.c ****         return 1; // дёә1пјҢиҝ”еӣһ1
 2383              		.loc 1 942 16 view .LVU585
 2384 002e 0120     		movs	r0, #1
 2385              	.LVL247:
 946:User_BSP/OLED.c **** }
 2386              		.loc 1 946 1 view .LVU586
 2387 0030 7047     		bx	lr
 2388              	.L176:
 2389 0032 00BF     		.align	2
 2390              	.L175:
 2391 0034 00000000 		.word	.LANCHOR0
 2392              		.cfi_endproc
 2393              	.LFE269:
 2395              		.section	.text.OLED_DrawLine,"ax",%progbits
 2396              		.align	1
 2397              		.global	OLED_DrawLine
 2398              		.syntax unified
 2399              		.thumb
 2400              		.thumb_func
 2402              	OLED_DrawLine:
 2403              	.LVL248:
 2404              	.LFB270:
 947:User_BSP/OLED.c **** 
 948:User_BSP/OLED.c **** /**
 949:User_BSP/OLED.c ****  * @brief OLEDз”»зәҝ
 950:User_BSP/OLED.c ****  * @param X0 жҢҮе®ҡдёҖдёӘз«ҜзӮ№зҡ„жЁӘеқҗж ҮпјҢиҢғеӣҙпјҡ0-127
 951:User_BSP/OLED.c ****  * @param Y0 жҢҮе®ҡдёҖдёӘз«ҜзӮ№зҡ„зәөеқҗж ҮпјҢиҢғеӣҙпјҡ0-63
 952:User_BSP/OLED.c ****  * @param X1 жҢҮе®ҡеҸҰдёҖдёӘз«ҜзӮ№зҡ„жЁӘеқҗж ҮпјҢиҢғеӣҙпјҡ0-127
 953:User_BSP/OLED.c ****  * @param Y1 жҢҮе®ҡеҸҰдёҖдёӘз«ҜзӮ№зҡ„зәөеқҗж ҮпјҢиҢғеӣҙпјҡ0-63
 954:User_BSP/OLED.c ****  * @return ж— 
 955:User_BSP/OLED.c ****  * @note и°ғз”ЁжӯӨеҮҪж•°еҗҺпјҢиҰҒжғізңҹжӯЈең°е‘ҲзҺ°еңЁеұҸе№•дёҠпјҢиҝҳйңҖи°ғз”Ёжӣҙж–°еҮҪж•°
 956:User_BSP/OLED.c ****  */
 957:User_BSP/OLED.c **** void OLED_DrawLine(uint8_t X0, uint8_t Y0, uint8_t X1, uint8_t Y1)
 958:User_BSP/OLED.c **** {
 2405              		.loc 1 958 1 is_stmt 1 view -0
 2406              		.cfi_startproc
 2407              		@ args = 0, pretend = 0, frame = 0
 2408              		@ frame_needed = 0, uses_anonymous_args = 0
 2409              		.loc 1 958 1 is_stmt 0 view .LVU588
 2410 0000 2DE9F84F 		push	{r3, r4, r5, r6, r7, r8, r9, r10, fp, lr}
 2411              	.LCFI44:
ARM GAS  C:\Users\bubble\AppData\Local\Temp\ccRMWmKE.s 			page 65


 2412              		.cfi_def_cfa_offset 40
 2413              		.cfi_offset 3, -40
 2414              		.cfi_offset 4, -36
 2415              		.cfi_offset 5, -32
 2416              		.cfi_offset 6, -28
 2417              		.cfi_offset 7, -24
 2418              		.cfi_offset 8, -20
 2419              		.cfi_offset 9, -16
 2420              		.cfi_offset 10, -12
 2421              		.cfi_offset 11, -8
 2422              		.cfi_offset 14, -4
 959:User_BSP/OLED.c ****     int16_t x, y, dx, dy, d, incrE, incrNE, temp;
 2423              		.loc 1 959 5 is_stmt 1 view .LVU589
 960:User_BSP/OLED.c ****     int16_t x0 = X0, y0 = Y0, x1 = X1, y1 = Y1;
 2424              		.loc 1 960 5 view .LVU590
 2425              		.loc 1 960 13 is_stmt 0 view .LVU591
 2426 0004 06B2     		sxth	r6, r0
 2427              	.LVL249:
 2428              		.loc 1 960 22 view .LVU592
 2429 0006 0FFA81F8 		sxth	r8, r1
 2430              	.LVL250:
 2431              		.loc 1 960 31 view .LVU593
 2432 000a 1546     		mov	r5, r2
 2433              	.LVL251:
 961:User_BSP/OLED.c ****     uint8_t yflag = 0, xyflag = 0;
 2434              		.loc 1 961 5 is_stmt 1 view .LVU594
 962:User_BSP/OLED.c **** 
 963:User_BSP/OLED.c ****     if (y0 == y1) // жЁӘзәҝеҚ•зӢ¬еӨ„зҗҶ
 2435              		.loc 1 963 5 view .LVU595
 2436              		.loc 1 963 8 is_stmt 0 view .LVU596
 2437 000c 9845     		cmp	r8, r3
 2438 000e 44D0     		beq	.L205
 2439 0010 8146     		mov	r9, r0
 2440 0012 1C46     		mov	r4, r3
 964:User_BSP/OLED.c ****     {
 965:User_BSP/OLED.c ****         /*0еҸ·зӮ№Xеқҗж ҮеӨ§дәҺ1еҸ·зӮ№Xеқҗж ҮпјҢеҲҷдәӨжҚўдёӨзӮ№Xеқҗж Ү*/
 966:User_BSP/OLED.c ****         if (x0 > x1) {
 967:User_BSP/OLED.c ****             temp = x0;
 968:User_BSP/OLED.c ****             x0   = x1;
 969:User_BSP/OLED.c ****             x1   = temp;
 970:User_BSP/OLED.c ****         }
 971:User_BSP/OLED.c **** 
 972:User_BSP/OLED.c ****         /*йҒҚеҺҶXеқҗж Ү*/
 973:User_BSP/OLED.c ****         for (x = x0; x <= x1; x++) {
 974:User_BSP/OLED.c ****             OLED_DrawPoint(x, y0); // дҫқж¬Ўз”»зӮ№
 975:User_BSP/OLED.c ****         }
 976:User_BSP/OLED.c ****     } else if (x0 == x1) // з«–зәҝеҚ•зӢ¬еӨ„зҗҶ
 2441              		.loc 1 976 12 is_stmt 1 view .LVU597
 2442              		.loc 1 976 15 is_stmt 0 view .LVU598
 2443 0014 9642     		cmp	r6, r2
 2444 0016 50D0     		beq	.L206
 977:User_BSP/OLED.c ****     {
 978:User_BSP/OLED.c ****         /*0еҸ·зӮ№Yеқҗж ҮеӨ§дәҺ1еҸ·зӮ№Yеқҗж ҮпјҢеҲҷдәӨжҚўдёӨзӮ№Yеқҗж Ү*/
 979:User_BSP/OLED.c ****         if (y0 > y1) {
 980:User_BSP/OLED.c ****             temp = y0;
 981:User_BSP/OLED.c ****             y0   = y1;
 982:User_BSP/OLED.c ****             y1   = temp;
ARM GAS  C:\Users\bubble\AppData\Local\Temp\ccRMWmKE.s 			page 66


 983:User_BSP/OLED.c ****         }
 984:User_BSP/OLED.c **** 
 985:User_BSP/OLED.c ****         /*йҒҚеҺҶYеқҗж Ү*/
 986:User_BSP/OLED.c ****         for (y = y0; y <= y1; y++) {
 987:User_BSP/OLED.c ****             OLED_DrawPoint(x0, y); // дҫқж¬Ўз”»зӮ№
 988:User_BSP/OLED.c ****         }
 989:User_BSP/OLED.c ****     } else // ж–ңзәҝ
 990:User_BSP/OLED.c ****     {
 991:User_BSP/OLED.c ****         /*дҪҝз”ЁBresenhamз®—жі•з”»зӣҙзәҝпјҢеҸҜд»ҘйҒҝе…ҚиҖ—ж—¶зҡ„жө®зӮ№иҝҗз®—пјҢж•ҲзҺҮжӣҙй«ҳ*/
 992:User_BSP/OLED.c ****         /*еҸӮиҖғж–ҮжЎЈпјҡhttps://www.cs.montana.edu/courses/spring2009/425/dslectures/Bresenham.pdf
 993:User_BSP/OLED.c ****         /*еҸӮиҖғж•ҷзЁӢпјҡhttps://www.bilibili.com/video/BV1364y1d7Lo*/
 994:User_BSP/OLED.c **** 
 995:User_BSP/OLED.c ****         if (x0 > x1) // 0еҸ·зӮ№Xеқҗж ҮеӨ§дәҺ1еҸ·зӮ№Xеқҗж Ү
 2445              		.loc 1 995 9 is_stmt 1 view .LVU599
 2446              		.loc 1 995 12 is_stmt 0 view .LVU600
 2447 0018 9642     		cmp	r6, r2
 2448 001a 03DC     		bgt	.L187
 960:User_BSP/OLED.c ****     uint8_t yflag = 0, xyflag = 0;
 2449              		.loc 1 960 22 view .LVU601
 2450 001c 4446     		mov	r4, r8
 960:User_BSP/OLED.c ****     uint8_t yflag = 0, xyflag = 0;
 2451              		.loc 1 960 40 view .LVU602
 2452 001e 9846     		mov	r8, r3
 2453              	.LVL252:
 960:User_BSP/OLED.c ****     uint8_t yflag = 0, xyflag = 0;
 2454              		.loc 1 960 13 view .LVU603
 2455 0020 3546     		mov	r5, r6
 960:User_BSP/OLED.c ****     uint8_t yflag = 0, xyflag = 0;
 2456              		.loc 1 960 31 view .LVU604
 2457 0022 1646     		mov	r6, r2
 2458              	.LVL253:
 2459              	.L187:
 996:User_BSP/OLED.c ****         {
 997:User_BSP/OLED.c ****             /*дәӨжҚўдёӨзӮ№еқҗж Ү*/
 998:User_BSP/OLED.c ****             /*дәӨжҚўеҗҺдёҚеҪұе“Қз”»зәҝпјҢдҪҶжҳҜз”»зәҝж–№еҗ‘з”ұз¬¬дёҖгҖҒдәҢгҖҒдёүгҖҒеӣӣиұЎйҷҗеҸҳдёәз
 999:User_BSP/OLED.c ****             temp = x0;
1000:User_BSP/OLED.c ****             x0   = x1;
1001:User_BSP/OLED.c ****             x1   = temp;
1002:User_BSP/OLED.c ****             temp = y0;
1003:User_BSP/OLED.c ****             y0   = y1;
1004:User_BSP/OLED.c ****             y1   = temp;
1005:User_BSP/OLED.c ****         }
1006:User_BSP/OLED.c **** 
1007:User_BSP/OLED.c ****         if (y0 > y1) // 0еҸ·зӮ№Yеқҗж ҮеӨ§дәҺ1еҸ·зӮ№Yеқҗж Ү
 2460              		.loc 1 1007 9 is_stmt 1 view .LVU605
 2461              		.loc 1 1007 12 is_stmt 0 view .LVU606
 2462 0024 4445     		cmp	r4, r8
 2463 0026 55DD     		ble	.L202
1008:User_BSP/OLED.c ****         {
1009:User_BSP/OLED.c ****             /*е°ҶYеқҗж ҮеҸ–иҙҹ*/
1010:User_BSP/OLED.c ****             /*еҸ–иҙҹеҗҺеҪұе“Қз”»зәҝпјҢдҪҶжҳҜз”»зәҝж–№еҗ‘з”ұз¬¬дёҖгҖҒеӣӣиұЎйҷҗеҸҳдёәз¬¬дёҖиұЎйҷҗ*/
1011:User_BSP/OLED.c ****             y0 = -y0;
 2464              		.loc 1 1011 13 is_stmt 1 view .LVU607
 2465              		.loc 1 1011 16 is_stmt 0 view .LVU608
 2466 0028 6442     		rsbs	r4, r4, #0
 2467              	.LVL254:
 2468              		.loc 1 1011 16 view .LVU609
ARM GAS  C:\Users\bubble\AppData\Local\Temp\ccRMWmKE.s 			page 67


 2469 002a 24B2     		sxth	r4, r4
 2470              	.LVL255:
1012:User_BSP/OLED.c ****             y1 = -y1;
 2471              		.loc 1 1012 13 is_stmt 1 view .LVU610
 2472              		.loc 1 1012 16 is_stmt 0 view .LVU611
 2473 002c C8F10008 		rsb	r8, r8, #0
 2474              	.LVL256:
 2475              		.loc 1 1012 16 view .LVU612
 2476 0030 0FFA88F8 		sxth	r8, r8
 2477              	.LVL257:
1013:User_BSP/OLED.c **** 
1014:User_BSP/OLED.c ****             /*зҪ®ж Үеҝ—дҪҚyflagпјҢи®°дҪҸеҪ“еүҚеҸҳжҚўпјҢеңЁеҗҺз»ӯе®һйҷ…з”»зәҝж—¶пјҢеҶҚе°Ҷеқҗж ҮжҚўеӣ
1015:User_BSP/OLED.c ****             yflag = 1;
 2478              		.loc 1 1015 13 is_stmt 1 view .LVU613
 2479              		.loc 1 1015 19 is_stmt 0 view .LVU614
 2480 0034 4FF00109 		mov	r9, #1
 2481              	.LVL258:
 2482              	.L188:
1016:User_BSP/OLED.c ****         }
1017:User_BSP/OLED.c **** 
1018:User_BSP/OLED.c ****         if (y1 - y0 > x1 - x0) // з”»зәҝж–ңзҺҮеӨ§дәҺ1
 2483              		.loc 1 1018 9 is_stmt 1 view .LVU615
 2484              		.loc 1 1018 16 is_stmt 0 view .LVU616
 2485 0038 A8EB0403 		sub	r3, r8, r4
 2486              	.LVL259:
 2487              		.loc 1 1018 26 view .LVU617
 2488 003c 721B     		subs	r2, r6, r5
 2489              	.LVL260:
 2490              		.loc 1 1018 12 view .LVU618
 2491 003e 9342     		cmp	r3, r2
 2492 0040 4BDC     		bgt	.L203
 2493              		.loc 1 1018 12 view .LVU619
 2494 0042 4346     		mov	r3, r8
 2495 0044 B046     		mov	r8, r6
 2496              	.LVL261:
 2497              		.loc 1 1018 12 view .LVU620
 2498 0046 1E46     		mov	r6, r3
 2499              	.LVL262:
 2500              		.loc 1 1018 12 view .LVU621
 2501 0048 2346     		mov	r3, r4
 2502 004a 2C46     		mov	r4, r5
 2503              	.LVL263:
 2504              		.loc 1 1018 12 view .LVU622
 2505 004c 1D46     		mov	r5, r3
 2506              	.LVL264:
 961:User_BSP/OLED.c **** 
 2507              		.loc 1 961 24 view .LVU623
 2508 004e 4FF0000A 		mov	r10, #0
 2509              	.L189:
 2510              	.LVL265:
1019:User_BSP/OLED.c ****         {
1020:User_BSP/OLED.c ****             /*е°ҶXеқҗж ҮдёҺYеқҗж Үдә’жҚў*/
1021:User_BSP/OLED.c ****             /*дә’жҚўеҗҺеҪұе“Қз”»зәҝпјҢдҪҶжҳҜз”»зәҝж–№еҗ‘з”ұз¬¬дёҖиұЎйҷҗ0~90еәҰиҢғеӣҙеҸҳдёәз¬¬дёҖиұЎ
1022:User_BSP/OLED.c ****             temp = x0;
1023:User_BSP/OLED.c ****             x0   = y0;
1024:User_BSP/OLED.c ****             y0   = temp;
1025:User_BSP/OLED.c ****             temp = x1;
ARM GAS  C:\Users\bubble\AppData\Local\Temp\ccRMWmKE.s 			page 68


1026:User_BSP/OLED.c ****             x1   = y1;
1027:User_BSP/OLED.c ****             y1   = temp;
1028:User_BSP/OLED.c **** 
1029:User_BSP/OLED.c ****             /*зҪ®ж Үеҝ—дҪҚxyflagпјҢи®°дҪҸеҪ“еүҚеҸҳжҚўпјҢеңЁеҗҺз»ӯе®һйҷ…з”»зәҝж—¶пјҢеҶҚе°Ҷеқҗж ҮжҚўе
1030:User_BSP/OLED.c ****             xyflag = 1;
1031:User_BSP/OLED.c ****         }
1032:User_BSP/OLED.c **** 
1033:User_BSP/OLED.c ****         /*д»ҘдёӢдёәBresenhamз®—жі•з”»зӣҙзәҝ*/
1034:User_BSP/OLED.c ****         /*з®—жі•иҰҒжұӮпјҢз”»зәҝж–№еҗ‘еҝ…йЎ»дёәз¬¬дёҖиұЎйҷҗ0~45еәҰиҢғеӣҙ*/
1035:User_BSP/OLED.c ****         dx     = x1 - x0;
 2511              		.loc 1 1035 9 is_stmt 1 view .LVU624
 2512              		.loc 1 1035 21 is_stmt 0 view .LVU625
 2513 0052 1FFA88F2 		uxth	r2, r8
 2514 0056 A3B2     		uxth	r3, r4
 2515 0058 D71A     		subs	r7, r2, r3
 2516              		.loc 1 1035 16 view .LVU626
 2517 005a 3FB2     		sxth	r7, r7
 2518              	.LVL266:
1036:User_BSP/OLED.c ****         dy     = y1 - y0;
 2519              		.loc 1 1036 9 is_stmt 1 view .LVU627
 2520              		.loc 1 1036 21 is_stmt 0 view .LVU628
 2521 005c 761B     		subs	r6, r6, r5
 2522              	.LVL267:
 2523              		.loc 1 1036 21 view .LVU629
 2524 005e 1FFA86FB 		uxth	fp, r6
 2525              		.loc 1 1036 16 view .LVU630
 2526 0062 36B2     		sxth	r6, r6
 2527              	.LVL268:
1037:User_BSP/OLED.c ****         incrE  = 2 * dy;
 2528              		.loc 1 1037 9 is_stmt 1 view .LVU631
 2529              		.loc 1 1037 20 is_stmt 0 view .LVU632
 2530 0064 4FEA4B0B 		lsl	fp, fp, #1
 2531 0068 1FFA8BFB 		uxth	fp, fp
 2532              	.LVL269:
1038:User_BSP/OLED.c ****         incrNE = 2 * (dy - dx);
 2533              		.loc 1 1038 9 is_stmt 1 view .LVU633
 2534              		.loc 1 1038 26 is_stmt 0 view .LVU634
 2535 006c F71B     		subs	r7, r6, r7
 2536              	.LVL270:
 2537              		.loc 1 1038 16 view .LVU635
 2538 006e 7F00     		lsls	r7, r7, #1
 2539 0070 BFB2     		uxth	r7, r7
 2540              	.LVL271:
1039:User_BSP/OLED.c ****         d      = 2 * dy - dx;
 2541              		.loc 1 1039 9 is_stmt 1 view .LVU636
 2542              		.loc 1 1039 25 is_stmt 0 view .LVU637
 2543 0072 9E1A     		subs	r6, r3, r2
 2544              	.LVL272:
 2545              		.loc 1 1039 25 view .LVU638
 2546 0074 5E44     		add	r6, r6, fp
 2547              		.loc 1 1039 16 view .LVU639
 2548 0076 36B2     		sxth	r6, r6
 2549              	.LVL273:
1040:User_BSP/OLED.c ****         x      = x0;
 2550              		.loc 1 1040 9 is_stmt 1 view .LVU640
1041:User_BSP/OLED.c ****         y      = y0;
 2551              		.loc 1 1041 9 view .LVU641
ARM GAS  C:\Users\bubble\AppData\Local\Temp\ccRMWmKE.s 			page 69


1042:User_BSP/OLED.c **** 
1043:User_BSP/OLED.c ****         /*з”»иө·е§ӢзӮ№пјҢеҗҢж—¶еҲӨж–ӯж Үеҝ—дҪҚпјҢе°Ҷеқҗж ҮжҚўеӣһжқҘ*/
1044:User_BSP/OLED.c ****         if (yflag && xyflag) {
 2552              		.loc 1 1044 9 view .LVU642
 2553              		.loc 1 1044 12 is_stmt 0 view .LVU643
 2554 0078 B9F1000F 		cmp	r9, #0
 2555 007c 02D0     		beq	.L190
 2556              		.loc 1 1044 19 discriminator 1 view .LVU644
 2557 007e BAF1000F 		cmp	r10, #0
 2558 0082 2DD1     		bne	.L207
 2559              	.L190:
1045:User_BSP/OLED.c ****             OLED_DrawPoint(y, -x);
1046:User_BSP/OLED.c ****         } else if (yflag) {
 2560              		.loc 1 1046 16 is_stmt 1 view .LVU645
 2561              		.loc 1 1046 19 is_stmt 0 view .LVU646
 2562 0084 B9F1000F 		cmp	r9, #0
 2563 0088 30D1     		bne	.L208
1047:User_BSP/OLED.c ****             OLED_DrawPoint(x, -y);
1048:User_BSP/OLED.c ****         } else if (xyflag) {
 2564              		.loc 1 1048 16 is_stmt 1 view .LVU647
 2565              		.loc 1 1048 19 is_stmt 0 view .LVU648
 2566 008a BAF1000F 		cmp	r10, #0
 2567 008e 33D0     		beq	.L193
1049:User_BSP/OLED.c ****             OLED_DrawPoint(y, x);
 2568              		.loc 1 1049 13 is_stmt 1 view .LVU649
 2569 0090 E1B2     		uxtb	r1, r4
 2570              	.LVL274:
 2571              		.loc 1 1049 13 is_stmt 0 view .LVU650
 2572 0092 E8B2     		uxtb	r0, r5
 2573              	.LVL275:
 2574              		.loc 1 1049 13 view .LVU651
 2575 0094 FFF7FEFF 		bl	OLED_DrawPoint
 2576              	.LVL276:
 2577              		.loc 1 1049 13 view .LVU652
 2578 0098 46E0     		b	.L200
 2579              	.LVL277:
 2580              	.L205:
 2581              		.loc 1 1049 13 view .LVU653
 2582 009a 0F46     		mov	r7, r1
 966:User_BSP/OLED.c ****             temp = x0;
 2583              		.loc 1 966 9 is_stmt 1 view .LVU654
 966:User_BSP/OLED.c ****             temp = x0;
 2584              		.loc 1 966 12 is_stmt 0 view .LVU655
 2585 009c 9642     		cmp	r6, r2
 2586 009e 08DC     		bgt	.L180
 960:User_BSP/OLED.c ****     uint8_t yflag = 0, xyflag = 0;
 2587              		.loc 1 960 13 view .LVU656
 2588 00a0 3546     		mov	r5, r6
 960:User_BSP/OLED.c ****     uint8_t yflag = 0, xyflag = 0;
 2589              		.loc 1 960 31 view .LVU657
 2590 00a2 1646     		mov	r6, r2
 2591              	.LVL278:
 973:User_BSP/OLED.c ****             OLED_DrawPoint(x, y0); // дҫқж¬Ўз”»зӮ№
 2592              		.loc 1 973 9 is_stmt 1 view .LVU658
 973:User_BSP/OLED.c ****             OLED_DrawPoint(x, y0); // дҫқж¬Ўз”»зӮ№
 2593              		.loc 1 973 9 is_stmt 0 view .LVU659
 2594 00a4 05E0     		b	.L180
ARM GAS  C:\Users\bubble\AppData\Local\Temp\ccRMWmKE.s 			page 70


 2595              	.LVL279:
 2596              	.L181:
 974:User_BSP/OLED.c ****         }
 2597              		.loc 1 974 13 is_stmt 1 discriminator 3 view .LVU660
 2598 00a6 3946     		mov	r1, r7
 2599 00a8 E8B2     		uxtb	r0, r5
 2600 00aa FFF7FEFF 		bl	OLED_DrawPoint
 2601              	.LVL280:
 973:User_BSP/OLED.c ****             OLED_DrawPoint(x, y0); // дҫқж¬Ўз”»зӮ№
 2602              		.loc 1 973 31 discriminator 3 view .LVU661
 973:User_BSP/OLED.c ****             OLED_DrawPoint(x, y0); // дҫқж¬Ўз”»зӮ№
 2603              		.loc 1 973 32 is_stmt 0 discriminator 3 view .LVU662
 2604 00ae 0135     		adds	r5, r5, #1
 2605              	.LVL281:
 973:User_BSP/OLED.c ****             OLED_DrawPoint(x, y0); // дҫқж¬Ўз”»зӮ№
 2606              		.loc 1 973 32 discriminator 3 view .LVU663
 2607 00b0 2DB2     		sxth	r5, r5
 2608              	.LVL282:
 2609              	.L180:
 973:User_BSP/OLED.c ****             OLED_DrawPoint(x, y0); // дҫқж¬Ўз”»зӮ№
 2610              		.loc 1 973 22 is_stmt 1 discriminator 1 view .LVU664
 973:User_BSP/OLED.c ****             OLED_DrawPoint(x, y0); // дҫқж¬Ўз”»зӮ№
 2611              		.loc 1 973 9 is_stmt 0 discriminator 1 view .LVU665
 2612 00b2 B542     		cmp	r5, r6
 2613 00b4 F7DD     		ble	.L181
 2614              	.LVL283:
 2615              	.L177:
1050:User_BSP/OLED.c ****         } else {
1051:User_BSP/OLED.c ****             OLED_DrawPoint(x, y);
1052:User_BSP/OLED.c ****         }
1053:User_BSP/OLED.c **** 
1054:User_BSP/OLED.c ****         while (x < x1) // йҒҚеҺҶXиҪҙзҡ„жҜҸдёӘзӮ№
1055:User_BSP/OLED.c ****         {
1056:User_BSP/OLED.c ****             x++;
1057:User_BSP/OLED.c ****             if (d < 0) // дёӢдёҖдёӘзӮ№еңЁеҪ“еүҚзӮ№дёңж–№
1058:User_BSP/OLED.c ****             {
1059:User_BSP/OLED.c ****                 d += incrE;
1060:User_BSP/OLED.c ****             } else // дёӢдёҖдёӘзӮ№еңЁеҪ“еүҚзӮ№дёңеҢ—ж–№
1061:User_BSP/OLED.c ****             {
1062:User_BSP/OLED.c ****                 y++;
1063:User_BSP/OLED.c ****                 d += incrNE;
1064:User_BSP/OLED.c ****             }
1065:User_BSP/OLED.c **** 
1066:User_BSP/OLED.c ****             /*з”»жҜҸдёҖдёӘзӮ№пјҢеҗҢж—¶еҲӨж–ӯж Үеҝ—дҪҚпјҢе°Ҷеқҗж ҮжҚўеӣһжқҘ*/
1067:User_BSP/OLED.c ****             if (yflag && xyflag) {
1068:User_BSP/OLED.c ****                 OLED_DrawPoint(y, -x);
1069:User_BSP/OLED.c ****             } else if (yflag) {
1070:User_BSP/OLED.c ****                 OLED_DrawPoint(x, -y);
1071:User_BSP/OLED.c ****             } else if (xyflag) {
1072:User_BSP/OLED.c ****                 OLED_DrawPoint(y, x);
1073:User_BSP/OLED.c ****             } else {
1074:User_BSP/OLED.c ****                 OLED_DrawPoint(x, y);
1075:User_BSP/OLED.c ****             }
1076:User_BSP/OLED.c ****         }
1077:User_BSP/OLED.c ****     }
1078:User_BSP/OLED.c **** }
 2616              		.loc 1 1078 1 view .LVU666
ARM GAS  C:\Users\bubble\AppData\Local\Temp\ccRMWmKE.s 			page 71


 2617 00b6 BDE8F88F 		pop	{r3, r4, r5, r6, r7, r8, r9, r10, fp, pc}
 2618              	.LVL284:
 2619              	.L206:
 979:User_BSP/OLED.c ****             temp = y0;
 2620              		.loc 1 979 9 is_stmt 1 view .LVU667
 979:User_BSP/OLED.c ****             temp = y0;
 2621              		.loc 1 979 12 is_stmt 0 view .LVU668
 2622 00ba 9845     		cmp	r8, r3
 2623 00bc 01DC     		bgt	.L185
 960:User_BSP/OLED.c ****     uint8_t yflag = 0, xyflag = 0;
 2624              		.loc 1 960 22 view .LVU669
 2625 00be 4446     		mov	r4, r8
 960:User_BSP/OLED.c ****     uint8_t yflag = 0, xyflag = 0;
 2626              		.loc 1 960 40 view .LVU670
 2627 00c0 9846     		mov	r8, r3
 2628              	.LVL285:
 986:User_BSP/OLED.c ****             OLED_DrawPoint(x0, y); // дҫқж¬Ўз”»зӮ№
 2629              		.loc 1 986 9 is_stmt 1 view .LVU671
 2630              	.L185:
 986:User_BSP/OLED.c ****             OLED_DrawPoint(x0, y); // дҫқж¬Ўз”»зӮ№
 2631              		.loc 1 986 22 discriminator 1 view .LVU672
 986:User_BSP/OLED.c ****             OLED_DrawPoint(x0, y); // дҫқж¬Ўз”»зӮ№
 2632              		.loc 1 986 9 is_stmt 0 discriminator 1 view .LVU673
 2633 00c2 4445     		cmp	r4, r8
 2634 00c4 F7DC     		bgt	.L177
 987:User_BSP/OLED.c ****         }
 2635              		.loc 1 987 13 is_stmt 1 discriminator 3 view .LVU674
 2636 00c6 E1B2     		uxtb	r1, r4
 2637 00c8 4846     		mov	r0, r9
 2638 00ca FFF7FEFF 		bl	OLED_DrawPoint
 2639              	.LVL286:
 986:User_BSP/OLED.c ****             OLED_DrawPoint(x0, y); // дҫқж¬Ўз”»зӮ№
 2640              		.loc 1 986 31 discriminator 3 view .LVU675
 986:User_BSP/OLED.c ****             OLED_DrawPoint(x0, y); // дҫқж¬Ўз”»зӮ№
 2641              		.loc 1 986 32 is_stmt 0 discriminator 3 view .LVU676
 2642 00ce 0134     		adds	r4, r4, #1
 2643              	.LVL287:
 986:User_BSP/OLED.c ****             OLED_DrawPoint(x0, y); // дҫқж¬Ўз”»зӮ№
 2644              		.loc 1 986 32 discriminator 3 view .LVU677
 2645 00d0 24B2     		sxth	r4, r4
 2646              	.LVL288:
 986:User_BSP/OLED.c ****             OLED_DrawPoint(x0, y); // дҫқж¬Ўз”»зӮ№
 2647              		.loc 1 986 32 discriminator 3 view .LVU678
 2648 00d2 F6E7     		b	.L185
 2649              	.LVL289:
 2650              	.L202:
 961:User_BSP/OLED.c **** 
 2651              		.loc 1 961 13 view .LVU679
 2652 00d4 4FF00009 		mov	r9, #0
 2653 00d8 AEE7     		b	.L188
 2654              	.LVL290:
 2655              	.L203:
1030:User_BSP/OLED.c ****         }
 2656              		.loc 1 1030 20 view .LVU680
 2657 00da 4FF0010A 		mov	r10, #1
 2658 00de B8E7     		b	.L189
 2659              	.LVL291:
ARM GAS  C:\Users\bubble\AppData\Local\Temp\ccRMWmKE.s 			page 72


 2660              	.L207:
1045:User_BSP/OLED.c ****         } else if (yflag) {
 2661              		.loc 1 1045 13 is_stmt 1 view .LVU681
 2662 00e0 6142     		rsbs	r1, r4, #0
 2663              	.LVL292:
1045:User_BSP/OLED.c ****         } else if (yflag) {
 2664              		.loc 1 1045 13 is_stmt 0 view .LVU682
 2665 00e2 C9B2     		uxtb	r1, r1
 2666 00e4 E8B2     		uxtb	r0, r5
 2667              	.LVL293:
1045:User_BSP/OLED.c ****         } else if (yflag) {
 2668              		.loc 1 1045 13 view .LVU683
 2669 00e6 FFF7FEFF 		bl	OLED_DrawPoint
 2670              	.LVL294:
1045:User_BSP/OLED.c ****         } else if (yflag) {
 2671              		.loc 1 1045 13 view .LVU684
 2672 00ea 1DE0     		b	.L200
 2673              	.LVL295:
 2674              	.L208:
1047:User_BSP/OLED.c ****         } else if (xyflag) {
 2675              		.loc 1 1047 13 is_stmt 1 view .LVU685
 2676 00ec 6942     		rsbs	r1, r5, #0
 2677              	.LVL296:
1047:User_BSP/OLED.c ****         } else if (xyflag) {
 2678              		.loc 1 1047 13 is_stmt 0 view .LVU686
 2679 00ee C9B2     		uxtb	r1, r1
 2680 00f0 E0B2     		uxtb	r0, r4
 2681              	.LVL297:
1047:User_BSP/OLED.c ****         } else if (xyflag) {
 2682              		.loc 1 1047 13 view .LVU687
 2683 00f2 FFF7FEFF 		bl	OLED_DrawPoint
 2684              	.LVL298:
1047:User_BSP/OLED.c ****         } else if (xyflag) {
 2685              		.loc 1 1047 13 view .LVU688
 2686 00f6 17E0     		b	.L200
 2687              	.LVL299:
 2688              	.L193:
1051:User_BSP/OLED.c ****         }
 2689              		.loc 1 1051 13 is_stmt 1 view .LVU689
 2690 00f8 E9B2     		uxtb	r1, r5
 2691              	.LVL300:
1051:User_BSP/OLED.c ****         }
 2692              		.loc 1 1051 13 is_stmt 0 view .LVU690
 2693 00fa E0B2     		uxtb	r0, r4
 2694              	.LVL301:
1051:User_BSP/OLED.c ****         }
 2695              		.loc 1 1051 13 view .LVU691
 2696 00fc FFF7FEFF 		bl	OLED_DrawPoint
 2697              	.LVL302:
1051:User_BSP/OLED.c ****         }
 2698              		.loc 1 1051 13 view .LVU692
 2699 0100 12E0     		b	.L200
 2700              	.LVL303:
 2701              	.L209:
1059:User_BSP/OLED.c ****             } else // дёӢдёҖдёӘзӮ№еңЁеҪ“еүҚзӮ№дёңеҢ—ж–№
 2702              		.loc 1 1059 17 is_stmt 1 view .LVU693
1059:User_BSP/OLED.c ****             } else // дёӢдёҖдёӘзӮ№еңЁеҪ“еүҚзӮ№дёңеҢ—ж–№
ARM GAS  C:\Users\bubble\AppData\Local\Temp\ccRMWmKE.s 			page 73


 2703              		.loc 1 1059 19 is_stmt 0 view .LVU694
 2704 0102 5E44     		add	r6, r6, fp
 2705              	.LVL304:
1059:User_BSP/OLED.c ****             } else // дёӢдёҖдёӘзӮ№еңЁеҪ“еүҚзӮ№дёңеҢ—ж–№
 2706              		.loc 1 1059 19 view .LVU695
 2707 0104 36B2     		sxth	r6, r6
 2708              	.LVL305:
1059:User_BSP/OLED.c ****             } else // дёӢдёҖдёӘзӮ№еңЁеҪ“еүҚзӮ№дёңеҢ—ж–№
 2709              		.loc 1 1059 19 view .LVU696
 2710 0106 1AE0     		b	.L195
 2711              	.L210:
1068:User_BSP/OLED.c ****             } else if (yflag) {
 2712              		.loc 1 1068 17 is_stmt 1 view .LVU697
 2713 0108 4142     		rsbs	r1, r0, #0
 2714 010a C9B2     		uxtb	r1, r1
 2715 010c E8B2     		uxtb	r0, r5
 2716 010e FFF7FEFF 		bl	OLED_DrawPoint
 2717              	.LVL306:
 2718 0112 09E0     		b	.L200
 2719              	.L211:
1070:User_BSP/OLED.c ****             } else if (xyflag) {
 2720              		.loc 1 1070 17 view .LVU698
 2721 0114 6942     		rsbs	r1, r5, #0
 2722 0116 C9B2     		uxtb	r1, r1
 2723 0118 C0B2     		uxtb	r0, r0
 2724 011a FFF7FEFF 		bl	OLED_DrawPoint
 2725              	.LVL307:
 2726 011e 03E0     		b	.L200
 2727              	.L199:
1074:User_BSP/OLED.c ****             }
 2728              		.loc 1 1074 17 view .LVU699
 2729 0120 E9B2     		uxtb	r1, r5
 2730 0122 C0B2     		uxtb	r0, r0
 2731 0124 FFF7FEFF 		bl	OLED_DrawPoint
 2732              	.LVL308:
 2733              	.L200:
1054:User_BSP/OLED.c ****         {
 2734              		.loc 1 1054 15 view .LVU700
 2735 0128 4445     		cmp	r4, r8
 2736 012a C4DA     		bge	.L177
1056:User_BSP/OLED.c ****             if (d < 0) // дёӢдёҖдёӘзӮ№еңЁеҪ“еүҚзӮ№дёңж–№
 2737              		.loc 1 1056 13 view .LVU701
1056:User_BSP/OLED.c ****             if (d < 0) // дёӢдёҖдёӘзӮ№еңЁеҪ“еүҚзӮ№дёңж–№
 2738              		.loc 1 1056 14 is_stmt 0 view .LVU702
 2739 012c 0134     		adds	r4, r4, #1
 2740              	.LVL309:
1056:User_BSP/OLED.c ****             if (d < 0) // дёӢдёҖдёӘзӮ№еңЁеҪ“еүҚзӮ№дёңж–№
 2741              		.loc 1 1056 14 view .LVU703
 2742 012e A0B2     		uxth	r0, r4
 2743 0130 24B2     		sxth	r4, r4
 2744              	.LVL310:
1057:User_BSP/OLED.c ****             {
 2745              		.loc 1 1057 13 is_stmt 1 view .LVU704
1057:User_BSP/OLED.c ****             {
 2746              		.loc 1 1057 16 is_stmt 0 view .LVU705
 2747 0132 002E     		cmp	r6, #0
 2748 0134 E5DB     		blt	.L209
ARM GAS  C:\Users\bubble\AppData\Local\Temp\ccRMWmKE.s 			page 74


1062:User_BSP/OLED.c ****                 d += incrNE;
 2749              		.loc 1 1062 17 is_stmt 1 view .LVU706
1062:User_BSP/OLED.c ****                 d += incrNE;
 2750              		.loc 1 1062 18 is_stmt 0 view .LVU707
 2751 0136 0135     		adds	r5, r5, #1
 2752              	.LVL311:
1062:User_BSP/OLED.c ****                 d += incrNE;
 2753              		.loc 1 1062 18 view .LVU708
 2754 0138 2DB2     		sxth	r5, r5
 2755              	.LVL312:
1063:User_BSP/OLED.c ****             }
 2756              		.loc 1 1063 17 is_stmt 1 view .LVU709
1063:User_BSP/OLED.c ****             }
 2757              		.loc 1 1063 19 is_stmt 0 view .LVU710
 2758 013a 3E44     		add	r6, r6, r7
 2759              	.LVL313:
1063:User_BSP/OLED.c ****             }
 2760              		.loc 1 1063 19 view .LVU711
 2761 013c 36B2     		sxth	r6, r6
 2762              	.LVL314:
 2763              	.L195:
1067:User_BSP/OLED.c ****                 OLED_DrawPoint(y, -x);
 2764              		.loc 1 1067 13 is_stmt 1 view .LVU712
1067:User_BSP/OLED.c ****                 OLED_DrawPoint(y, -x);
 2765              		.loc 1 1067 16 is_stmt 0 view .LVU713
 2766 013e B9F1000F 		cmp	r9, #0
 2767 0142 02D0     		beq	.L196
1067:User_BSP/OLED.c ****                 OLED_DrawPoint(y, -x);
 2768              		.loc 1 1067 23 discriminator 1 view .LVU714
 2769 0144 BAF1000F 		cmp	r10, #0
 2770 0148 DED1     		bne	.L210
 2771              	.L196:
1069:User_BSP/OLED.c ****                 OLED_DrawPoint(x, -y);
 2772              		.loc 1 1069 20 is_stmt 1 view .LVU715
1069:User_BSP/OLED.c ****                 OLED_DrawPoint(x, -y);
 2773              		.loc 1 1069 23 is_stmt 0 view .LVU716
 2774 014a B9F1000F 		cmp	r9, #0
 2775 014e E1D1     		bne	.L211
1071:User_BSP/OLED.c ****                 OLED_DrawPoint(y, x);
 2776              		.loc 1 1071 20 is_stmt 1 view .LVU717
1071:User_BSP/OLED.c ****                 OLED_DrawPoint(y, x);
 2777              		.loc 1 1071 23 is_stmt 0 view .LVU718
 2778 0150 BAF1000F 		cmp	r10, #0
 2779 0154 E4D0     		beq	.L199
1072:User_BSP/OLED.c ****             } else {
 2780              		.loc 1 1072 17 is_stmt 1 view .LVU719
 2781 0156 C1B2     		uxtb	r1, r0
 2782 0158 E8B2     		uxtb	r0, r5
 2783 015a FFF7FEFF 		bl	OLED_DrawPoint
 2784              	.LVL315:
 2785 015e E3E7     		b	.L200
 2786              		.cfi_endproc
 2787              	.LFE270:
 2789              		.section	.text.OLED_DrawRectangle,"ax",%progbits
 2790              		.align	1
 2791              		.global	OLED_DrawRectangle
 2792              		.syntax unified
ARM GAS  C:\Users\bubble\AppData\Local\Temp\ccRMWmKE.s 			page 75


 2793              		.thumb
 2794              		.thumb_func
 2796              	OLED_DrawRectangle:
 2797              	.LVL316:
 2798              	.LFB271:
1079:User_BSP/OLED.c **** 
1080:User_BSP/OLED.c **** /**
1081:User_BSP/OLED.c ****  * @brief OLEDзҹ©еҪў
1082:User_BSP/OLED.c ****  * @param X жҢҮе®ҡзҹ©еҪўе·ҰдёҠи§’зҡ„жЁӘеқҗж ҮпјҢиҢғеӣҙпјҡ0~127
1083:User_BSP/OLED.c ****  * @param Y жҢҮе®ҡзҹ©еҪўе·ҰдёҠи§’зҡ„зәөеқҗж ҮпјҢиҢғеӣҙпјҡ0~63
1084:User_BSP/OLED.c ****  * @param Width жҢҮе®ҡзҹ©еҪўзҡ„е®ҪеәҰпјҢиҢғеӣҙпјҡ0~128
1085:User_BSP/OLED.c ****  * @param Height жҢҮе®ҡзҹ©еҪўзҡ„й«ҳеәҰпјҢиҢғеӣҙпјҡ0~64
1086:User_BSP/OLED.c ****  * @param IsFilled жҢҮе®ҡзҹ©еҪўжҳҜеҗҰеЎ«е……
1087:User_BSP/OLED.c ****  *           иҢғеӣҙпјҡOLED_UNFILLED		дёҚеЎ«е……
1088:User_BSP/OLED.c ****  *                 OLED_FILLED			еЎ«е……
1089:User_BSP/OLED.c ****  * @return ж— 
1090:User_BSP/OLED.c ****  * @note и°ғз”ЁжӯӨеҮҪж•°еҗҺпјҢиҰҒжғізңҹжӯЈең°е‘ҲзҺ°еңЁеұҸе№•дёҠпјҢиҝҳйңҖи°ғз”Ёжӣҙж–°еҮҪж•°
1091:User_BSP/OLED.c ****  */
1092:User_BSP/OLED.c **** void OLED_DrawRectangle(uint8_t X, uint8_t Y, uint8_t Width, uint8_t Height, uint8_t IsFilled)
1093:User_BSP/OLED.c **** {
 2799              		.loc 1 1093 1 view -0
 2800              		.cfi_startproc
 2801              		@ args = 4, pretend = 0, frame = 0
 2802              		@ frame_needed = 0, uses_anonymous_args = 0
 2803              		.loc 1 1093 1 is_stmt 0 view .LVU721
 2804 0000 2DE9F843 		push	{r3, r4, r5, r6, r7, r8, r9, lr}
 2805              	.LCFI45:
 2806              		.cfi_def_cfa_offset 32
 2807              		.cfi_offset 3, -32
 2808              		.cfi_offset 4, -28
 2809              		.cfi_offset 5, -24
 2810              		.cfi_offset 6, -20
 2811              		.cfi_offset 7, -16
 2812              		.cfi_offset 8, -12
 2813              		.cfi_offset 9, -8
 2814              		.cfi_offset 14, -4
 2815 0004 8046     		mov	r8, r0
 2816 0006 0D46     		mov	r5, r1
 2817 0008 9146     		mov	r9, r2
 2818 000a 1F46     		mov	r7, r3
 2819 000c 9DF82030 		ldrb	r3, [sp, #32]	@ zero_extendqisi2
 2820              	.LVL317:
1094:User_BSP/OLED.c ****     uint8_t i, j;
 2821              		.loc 1 1094 5 is_stmt 1 view .LVU722
1095:User_BSP/OLED.c ****     if (!IsFilled) // жҢҮе®ҡзҹ©еҪўдёҚеЎ«е……
 2822              		.loc 1 1095 5 view .LVU723
 2823              		.loc 1 1095 8 is_stmt 0 view .LVU724
 2824 0010 A3B1     		cbz	r3, .L221
1096:User_BSP/OLED.c ****     {
1097:User_BSP/OLED.c ****         /*йҒҚеҺҶдёҠдёӢXеқҗж ҮпјҢз”»зҹ©еҪўдёҠдёӢдёӨжқЎзәҝ*/
1098:User_BSP/OLED.c ****         for (i = X; i < X + Width; i++) {
1099:User_BSP/OLED.c ****             OLED_DrawPoint(i, Y);
1100:User_BSP/OLED.c ****             OLED_DrawPoint(i, Y + Height - 1);
1101:User_BSP/OLED.c ****         }
1102:User_BSP/OLED.c ****         /*йҒҚеҺҶе·ҰеҸіYеқҗж ҮпјҢз”»зҹ©еҪўе·ҰеҸідёӨжқЎзәҝ*/
1103:User_BSP/OLED.c ****         for (i = Y; i < Y + Height; i++) {
1104:User_BSP/OLED.c ****             OLED_DrawPoint(X, i);
ARM GAS  C:\Users\bubble\AppData\Local\Temp\ccRMWmKE.s 			page 76


1105:User_BSP/OLED.c ****             OLED_DrawPoint(X + Width - 1, i);
1106:User_BSP/OLED.c ****         }
1107:User_BSP/OLED.c ****     } else // жҢҮе®ҡзҹ©еҪўеЎ«е……
1108:User_BSP/OLED.c ****     {
1109:User_BSP/OLED.c ****         /*йҒҚеҺҶXеқҗж Ү*/
1110:User_BSP/OLED.c ****         for (i = X; i < X + Width; i++) {
 2825              		.loc 1 1110 16 view .LVU725
 2826 0012 0646     		mov	r6, r0
 2827 0014 33E0     		b	.L214
 2828              	.LVL318:
 2829              	.L215:
1099:User_BSP/OLED.c ****             OLED_DrawPoint(i, Y + Height - 1);
 2830              		.loc 1 1099 13 is_stmt 1 discriminator 3 view .LVU726
 2831 0016 2946     		mov	r1, r5
 2832 0018 2046     		mov	r0, r4
 2833 001a FFF7FEFF 		bl	OLED_DrawPoint
 2834              	.LVL319:
1100:User_BSP/OLED.c ****         }
 2835              		.loc 1 1100 13 discriminator 3 view .LVU727
1100:User_BSP/OLED.c ****         }
 2836              		.loc 1 1100 33 is_stmt 0 discriminator 3 view .LVU728
 2837 001e E919     		adds	r1, r5, r7
 2838 0020 C9B2     		uxtb	r1, r1
1100:User_BSP/OLED.c ****         }
 2839              		.loc 1 1100 13 discriminator 3 view .LVU729
 2840 0022 0139     		subs	r1, r1, #1
 2841 0024 C9B2     		uxtb	r1, r1
 2842 0026 2046     		mov	r0, r4
 2843 0028 FFF7FEFF 		bl	OLED_DrawPoint
 2844              	.LVL320:
1098:User_BSP/OLED.c ****             OLED_DrawPoint(i, Y);
 2845              		.loc 1 1098 36 is_stmt 1 discriminator 3 view .LVU730
1098:User_BSP/OLED.c ****             OLED_DrawPoint(i, Y);
 2846              		.loc 1 1098 37 is_stmt 0 discriminator 3 view .LVU731
 2847 002c 0134     		adds	r4, r4, #1
 2848              	.LVL321:
1098:User_BSP/OLED.c ****             OLED_DrawPoint(i, Y);
 2849              		.loc 1 1098 37 discriminator 3 view .LVU732
 2850 002e E4B2     		uxtb	r4, r4
 2851              	.LVL322:
 2852              	.L213:
1098:User_BSP/OLED.c ****             OLED_DrawPoint(i, Y);
 2853              		.loc 1 1098 21 is_stmt 1 discriminator 1 view .LVU733
1098:User_BSP/OLED.c ****             OLED_DrawPoint(i, Y);
 2854              		.loc 1 1098 27 is_stmt 0 discriminator 1 view .LVU734
 2855 0030 08EB0903 		add	r3, r8, r9
1098:User_BSP/OLED.c ****             OLED_DrawPoint(i, Y);
 2856              		.loc 1 1098 9 discriminator 1 view .LVU735
 2857 0034 9C42     		cmp	r4, r3
 2858 0036 EEDB     		blt	.L215
1103:User_BSP/OLED.c ****             OLED_DrawPoint(X, i);
 2859              		.loc 1 1103 16 view .LVU736
 2860 0038 2C46     		mov	r4, r5
 2861              	.LVL323:
1103:User_BSP/OLED.c ****             OLED_DrawPoint(X, i);
 2862              		.loc 1 1103 16 view .LVU737
 2863 003a 0FE0     		b	.L216
ARM GAS  C:\Users\bubble\AppData\Local\Temp\ccRMWmKE.s 			page 77


 2864              	.LVL324:
 2865              	.L221:
1098:User_BSP/OLED.c ****             OLED_DrawPoint(i, Y);
 2866              		.loc 1 1098 16 view .LVU738
 2867 003c 0446     		mov	r4, r0
 2868 003e F7E7     		b	.L213
 2869              	.LVL325:
 2870              	.L217:
1104:User_BSP/OLED.c ****             OLED_DrawPoint(X + Width - 1, i);
 2871              		.loc 1 1104 13 is_stmt 1 discriminator 3 view .LVU739
 2872 0040 2146     		mov	r1, r4
 2873 0042 4046     		mov	r0, r8
 2874 0044 FFF7FEFF 		bl	OLED_DrawPoint
 2875              	.LVL326:
1105:User_BSP/OLED.c ****         }
 2876              		.loc 1 1105 13 discriminator 3 view .LVU740
1105:User_BSP/OLED.c ****         }
 2877              		.loc 1 1105 30 is_stmt 0 discriminator 3 view .LVU741
 2878 0048 08EB0900 		add	r0, r8, r9
 2879 004c C0B2     		uxtb	r0, r0
1105:User_BSP/OLED.c ****         }
 2880              		.loc 1 1105 13 discriminator 3 view .LVU742
 2881 004e 0138     		subs	r0, r0, #1
 2882 0050 2146     		mov	r1, r4
 2883 0052 C0B2     		uxtb	r0, r0
 2884 0054 FFF7FEFF 		bl	OLED_DrawPoint
 2885              	.LVL327:
1103:User_BSP/OLED.c ****             OLED_DrawPoint(X, i);
 2886              		.loc 1 1103 37 is_stmt 1 discriminator 3 view .LVU743
1103:User_BSP/OLED.c ****             OLED_DrawPoint(X, i);
 2887              		.loc 1 1103 38 is_stmt 0 discriminator 3 view .LVU744
 2888 0058 0134     		adds	r4, r4, #1
 2889              	.LVL328:
1103:User_BSP/OLED.c ****             OLED_DrawPoint(X, i);
 2890              		.loc 1 1103 38 discriminator 3 view .LVU745
 2891 005a E4B2     		uxtb	r4, r4
 2892              	.LVL329:
 2893              	.L216:
1103:User_BSP/OLED.c ****             OLED_DrawPoint(X, i);
 2894              		.loc 1 1103 21 is_stmt 1 discriminator 1 view .LVU746
1103:User_BSP/OLED.c ****             OLED_DrawPoint(X, i);
 2895              		.loc 1 1103 27 is_stmt 0 discriminator 1 view .LVU747
 2896 005c EB19     		adds	r3, r5, r7
1103:User_BSP/OLED.c ****             OLED_DrawPoint(X, i);
 2897              		.loc 1 1103 9 discriminator 1 view .LVU748
 2898 005e 9C42     		cmp	r4, r3
 2899 0060 EEDB     		blt	.L217
 2900              	.LVL330:
 2901              	.L212:
1111:User_BSP/OLED.c ****             /*йҒҚеҺҶYеқҗж Ү*/
1112:User_BSP/OLED.c ****             for (j = Y; j < Y + Height; j++) {
1113:User_BSP/OLED.c ****                 /*еңЁжҢҮе®ҡеҢәеҹҹз”»зӮ№пјҢеЎ«е……ж»Ўзҹ©еҪў*/
1114:User_BSP/OLED.c ****                 OLED_DrawPoint(i, j);
1115:User_BSP/OLED.c ****             }
1116:User_BSP/OLED.c ****         }
1117:User_BSP/OLED.c ****     }
1118:User_BSP/OLED.c **** }
ARM GAS  C:\Users\bubble\AppData\Local\Temp\ccRMWmKE.s 			page 78


 2902              		.loc 1 1118 1 view .LVU749
 2903 0062 BDE8F883 		pop	{r3, r4, r5, r6, r7, r8, r9, pc}
 2904              	.LVL331:
 2905              	.L219:
1114:User_BSP/OLED.c ****             }
 2906              		.loc 1 1114 17 is_stmt 1 discriminator 3 view .LVU750
 2907 0066 2146     		mov	r1, r4
 2908 0068 3046     		mov	r0, r6
 2909 006a FFF7FEFF 		bl	OLED_DrawPoint
 2910              	.LVL332:
1112:User_BSP/OLED.c ****                 /*еңЁжҢҮе®ҡеҢәеҹҹз”»зӮ№пјҢеЎ«е……ж»Ўзҹ©еҪў*/
 2911              		.loc 1 1112 41 discriminator 3 view .LVU751
1112:User_BSP/OLED.c ****                 /*еңЁжҢҮе®ҡеҢәеҹҹз”»зӮ№пјҢеЎ«е……ж»Ўзҹ©еҪў*/
 2912              		.loc 1 1112 42 is_stmt 0 discriminator 3 view .LVU752
 2913 006e 0134     		adds	r4, r4, #1
 2914              	.LVL333:
1112:User_BSP/OLED.c ****                 /*еңЁжҢҮе®ҡеҢәеҹҹз”»зӮ№пјҢеЎ«е……ж»Ўзҹ©еҪў*/
 2915              		.loc 1 1112 42 discriminator 3 view .LVU753
 2916 0070 E4B2     		uxtb	r4, r4
 2917              	.LVL334:
 2918              	.L220:
1112:User_BSP/OLED.c ****                 /*еңЁжҢҮе®ҡеҢәеҹҹз”»зӮ№пјҢеЎ«е……ж»Ўзҹ©еҪў*/
 2919              		.loc 1 1112 25 is_stmt 1 discriminator 1 view .LVU754
1112:User_BSP/OLED.c ****                 /*еңЁжҢҮе®ҡеҢәеҹҹз”»зӮ№пјҢеЎ«е……ж»Ўзҹ©еҪў*/
 2920              		.loc 1 1112 31 is_stmt 0 discriminator 1 view .LVU755
 2921 0072 05EB070C 		add	ip, r5, r7
1112:User_BSP/OLED.c ****                 /*еңЁжҢҮе®ҡеҢәеҹҹз”»зӮ№пјҢеЎ«е……ж»Ўзҹ©еҪў*/
 2922              		.loc 1 1112 13 discriminator 1 view .LVU756
 2923 0076 6445     		cmp	r4, ip
 2924 0078 F5DB     		blt	.L219
1110:User_BSP/OLED.c ****             /*йҒҚеҺҶYеқҗж Ү*/
 2925              		.loc 1 1110 36 is_stmt 1 discriminator 2 view .LVU757
1110:User_BSP/OLED.c ****             /*йҒҚеҺҶYеқҗж Ү*/
 2926              		.loc 1 1110 37 is_stmt 0 discriminator 2 view .LVU758
 2927 007a 0136     		adds	r6, r6, #1
 2928              	.LVL335:
1110:User_BSP/OLED.c ****             /*йҒҚеҺҶYеқҗж Ү*/
 2929              		.loc 1 1110 37 discriminator 2 view .LVU759
 2930 007c F6B2     		uxtb	r6, r6
 2931              	.LVL336:
 2932              	.L214:
1110:User_BSP/OLED.c ****             /*йҒҚеҺҶYеқҗж Ү*/
 2933              		.loc 1 1110 21 is_stmt 1 discriminator 1 view .LVU760
1110:User_BSP/OLED.c ****             /*йҒҚеҺҶYеқҗж Ү*/
 2934              		.loc 1 1110 27 is_stmt 0 discriminator 1 view .LVU761
 2935 007e 08EB0903 		add	r3, r8, r9
1110:User_BSP/OLED.c ****             /*йҒҚеҺҶYеқҗж Ү*/
 2936              		.loc 1 1110 9 discriminator 1 view .LVU762
 2937 0082 9E42     		cmp	r6, r3
 2938 0084 EDDA     		bge	.L212
1112:User_BSP/OLED.c ****                 /*еңЁжҢҮе®ҡеҢәеҹҹз”»зӮ№пјҢеЎ«е……ж»Ўзҹ©еҪў*/
 2939              		.loc 1 1112 20 view .LVU763
 2940 0086 2C46     		mov	r4, r5
 2941 0088 F3E7     		b	.L220
 2942              		.cfi_endproc
 2943              	.LFE271:
 2945              		.section	.text.OLED_DrawTriangle,"ax",%progbits
ARM GAS  C:\Users\bubble\AppData\Local\Temp\ccRMWmKE.s 			page 79


 2946              		.align	1
 2947              		.global	OLED_DrawTriangle
 2948              		.syntax unified
 2949              		.thumb
 2950              		.thumb_func
 2952              	OLED_DrawTriangle:
 2953              	.LVL337:
 2954              	.LFB272:
1119:User_BSP/OLED.c **** 
1120:User_BSP/OLED.c **** /**
1121:User_BSP/OLED.c ****  * @brief OLEDдёүи§’еҪў
1122:User_BSP/OLED.c ****  * @param X0 жҢҮе®ҡз¬¬дёҖдёӘз«ҜзӮ№зҡ„жЁӘеқҗж ҮпјҢиҢғеӣҙпјҡ0-127
1123:User_BSP/OLED.c ****  * @param Y0 жҢҮе®ҡз¬¬дёҖдёӘз«ҜзӮ№зҡ„зәөеқҗж ҮпјҢиҢғеӣҙпјҡ0-63
1124:User_BSP/OLED.c ****  * @param X1 жҢҮе®ҡз¬¬дәҢдёӘз«ҜзӮ№зҡ„жЁӘеқҗж ҮпјҢиҢғеӣҙпјҡ0-127
1125:User_BSP/OLED.c ****  * @param Y1 жҢҮе®ҡз¬¬дәҢдёӘз«ҜзӮ№зҡ„зәөеқҗж ҮпјҢиҢғеӣҙпјҡ0-63
1126:User_BSP/OLED.c ****  * @param X2 жҢҮе®ҡз¬¬дёүдёӘз«ҜзӮ№зҡ„жЁӘеқҗж ҮпјҢиҢғеӣҙпјҡ0-127
1127:User_BSP/OLED.c ****  * @param Y2 жҢҮе®ҡз¬¬дёүдёӘз«ҜзӮ№зҡ„зәөеқҗж ҮпјҢиҢғеӣҙпјҡ0-63
1128:User_BSP/OLED.c ****  * @param IsFilled жҢҮе®ҡдёүи§’еҪўжҳҜеҗҰеЎ«е……
1129:User_BSP/OLED.c ****  *           иҢғеӣҙпјҡOLED_UNFILLED		дёҚеЎ«е……
1130:User_BSP/OLED.c ****  *                 OLED_FILLED			еЎ«е……
1131:User_BSP/OLED.c ****  * @return ж— 
1132:User_BSP/OLED.c ****  * @note и°ғз”ЁжӯӨеҮҪж•°еҗҺпјҢиҰҒжғізңҹжӯЈең°е‘ҲзҺ°еңЁеұҸе№•дёҠпјҢиҝҳйңҖи°ғз”Ёжӣҙж–°еҮҪж•°
1133:User_BSP/OLED.c ****  */
1134:User_BSP/OLED.c **** void OLED_DrawTriangle(uint8_t X0, uint8_t Y0, uint8_t X1, uint8_t Y1, uint8_t X2, uint8_t Y2, uint
1135:User_BSP/OLED.c **** {
 2955              		.loc 1 1135 1 is_stmt 1 view -0
 2956              		.cfi_startproc
 2957              		@ args = 12, pretend = 0, frame = 16
 2958              		@ frame_needed = 0, uses_anonymous_args = 0
 2959              		.loc 1 1135 1 is_stmt 0 view .LVU765
 2960 0000 2DE9F04F 		push	{r4, r5, r6, r7, r8, r9, r10, fp, lr}
 2961              	.LCFI46:
 2962              		.cfi_def_cfa_offset 36
 2963              		.cfi_offset 4, -36
 2964              		.cfi_offset 5, -32
 2965              		.cfi_offset 6, -28
 2966              		.cfi_offset 7, -24
 2967              		.cfi_offset 8, -20
 2968              		.cfi_offset 9, -16
 2969              		.cfi_offset 10, -12
 2970              		.cfi_offset 11, -8
 2971              		.cfi_offset 14, -4
 2972 0004 87B0     		sub	sp, sp, #28
 2973              	.LCFI47:
 2974              		.cfi_def_cfa_offset 64
 2975 0006 8346     		mov	fp, r0
 2976 0008 8A46     		mov	r10, r1
 2977 000a 9146     		mov	r9, r2
 2978 000c 1C46     		mov	r4, r3
 2979 000e 9DF84070 		ldrb	r7, [sp, #64]	@ zero_extendqisi2
 2980 0012 9DF84460 		ldrb	r6, [sp, #68]	@ zero_extendqisi2
 2981 0016 9DF84830 		ldrb	r3, [sp, #72]	@ zero_extendqisi2
 2982              	.LVL338:
1136:User_BSP/OLED.c ****     uint8_t minx = X0, miny = Y0, maxx = X0, maxy = Y0;
 2983              		.loc 1 1136 5 is_stmt 1 view .LVU766
1137:User_BSP/OLED.c ****     uint8_t i, j;
 2984              		.loc 1 1137 5 view .LVU767
ARM GAS  C:\Users\bubble\AppData\Local\Temp\ccRMWmKE.s 			page 80


1138:User_BSP/OLED.c ****     int16_t vx[] = {X0, X1, X2};
 2985              		.loc 1 1138 5 view .LVU768
 2986              		.loc 1 1138 13 is_stmt 0 view .LVU769
 2987 001a ADF81000 		strh	r0, [sp, #16]	@ movhi
 2988 001e ADF81220 		strh	r2, [sp, #18]	@ movhi
 2989 0022 ADF81470 		strh	r7, [sp, #20]	@ movhi
1139:User_BSP/OLED.c ****     int16_t vy[] = {Y0, Y1, Y2};
 2990              		.loc 1 1139 5 is_stmt 1 view .LVU770
 2991              		.loc 1 1139 13 is_stmt 0 view .LVU771
 2992 0026 ADF80810 		strh	r1, [sp, #8]	@ movhi
 2993 002a ADF80A40 		strh	r4, [sp, #10]	@ movhi
 2994 002e ADF80C60 		strh	r6, [sp, #12]	@ movhi
1140:User_BSP/OLED.c **** 
1141:User_BSP/OLED.c ****     if (!IsFilled) // жҢҮе®ҡдёүи§’еҪўдёҚеЎ«е……
 2995              		.loc 1 1141 5 is_stmt 1 view .LVU772
 2996              		.loc 1 1141 8 is_stmt 0 view .LVU773
 2997 0032 C3B1     		cbz	r3, .L245
1142:User_BSP/OLED.c ****     {
1143:User_BSP/OLED.c ****         /*и°ғз”Ёз”»зәҝеҮҪж•°пјҢе°ҶдёүдёӘзӮ№з”ЁзӣҙзәҝиҝһжҺҘ*/
1144:User_BSP/OLED.c ****         OLED_DrawLine(X0, Y0, X1, Y1);
1145:User_BSP/OLED.c ****         OLED_DrawLine(X0, Y0, X2, Y2);
1146:User_BSP/OLED.c ****         OLED_DrawLine(X1, Y1, X2, Y2);
1147:User_BSP/OLED.c ****     } else // жҢҮе®ҡдёүи§’еҪўеЎ«е……
1148:User_BSP/OLED.c ****     {
1149:User_BSP/OLED.c ****         /*жүҫеҲ°дёүдёӘзӮ№жңҖе°Ҹзҡ„XгҖҒYеқҗж Ү*/
1150:User_BSP/OLED.c ****         if (X1 < minx) { minx = X1; }
 2998              		.loc 1 1150 9 is_stmt 1 view .LVU774
 2999              		.loc 1 1150 12 is_stmt 0 view .LVU775
 3000 0034 9042     		cmp	r0, r2
 3001 0036 28D8     		bhi	.L239
1136:User_BSP/OLED.c ****     uint8_t i, j;
 3002              		.loc 1 1136 13 view .LVU776
 3003 0038 0546     		mov	r5, r0
 3004              	.L227:
 3005              	.LVL339:
1151:User_BSP/OLED.c ****         if (X2 < minx) { minx = X2; }
 3006              		.loc 1 1151 9 is_stmt 1 view .LVU777
 3007              		.loc 1 1151 12 is_stmt 0 view .LVU778
 3008 003a BD42     		cmp	r5, r7
 3009 003c 00D9     		bls	.L228
 3010              		.loc 1 1151 31 view .LVU779
 3011 003e 3D46     		mov	r5, r7
 3012              	.LVL340:
 3013              	.L228:
1152:User_BSP/OLED.c ****         if (Y1 < miny) { miny = Y1; }
 3014              		.loc 1 1152 9 is_stmt 1 view .LVU780
 3015              		.loc 1 1152 12 is_stmt 0 view .LVU781
 3016 0040 A245     		cmp	r10, r4
 3017 0042 24D8     		bhi	.L241
1136:User_BSP/OLED.c ****     uint8_t i, j;
 3018              		.loc 1 1136 24 view .LVU782
 3019 0044 D046     		mov	r8, r10
 3020              	.L229:
 3021              	.LVL341:
1153:User_BSP/OLED.c ****         if (Y2 < miny) { miny = Y2; }
 3022              		.loc 1 1153 9 is_stmt 1 view .LVU783
 3023              		.loc 1 1153 12 is_stmt 0 view .LVU784
ARM GAS  C:\Users\bubble\AppData\Local\Temp\ccRMWmKE.s 			page 81


 3024 0046 B045     		cmp	r8, r6
 3025 0048 00D9     		bls	.L230
 3026              		.loc 1 1153 31 view .LVU785
 3027 004a B046     		mov	r8, r6
 3028              	.LVL342:
 3029              	.L230:
1154:User_BSP/OLED.c **** 
1155:User_BSP/OLED.c ****         /*жүҫеҲ°дёүдёӘзӮ№жңҖеӨ§зҡ„XгҖҒYеқҗж Ү*/
1156:User_BSP/OLED.c ****         if (X1 > maxx) { maxx = X1; }
 3030              		.loc 1 1156 9 is_stmt 1 view .LVU786
 3031              		.loc 1 1156 12 is_stmt 0 view .LVU787
 3032 004c CB45     		cmp	fp, r9
 3033 004e 00D3     		bcc	.L231
1136:User_BSP/OLED.c ****     uint8_t i, j;
 3034              		.loc 1 1136 35 view .LVU788
 3035 0050 D946     		mov	r9, fp
 3036              	.L231:
 3037              	.LVL343:
1157:User_BSP/OLED.c ****         if (X2 > maxx) { maxx = X2; }
 3038              		.loc 1 1157 9 is_stmt 1 view .LVU789
 3039              		.loc 1 1157 12 is_stmt 0 view .LVU790
 3040 0052 B945     		cmp	r9, r7
 3041 0054 00D3     		bcc	.L232
 3042 0056 4F46     		mov	r7, r9
 3043              	.L232:
 3044              	.LVL344:
1158:User_BSP/OLED.c ****         if (Y1 > maxy) { maxy = Y1; }
 3045              		.loc 1 1158 9 is_stmt 1 view .LVU791
 3046              		.loc 1 1158 12 is_stmt 0 view .LVU792
 3047 0058 A245     		cmp	r10, r4
 3048 005a 00D3     		bcc	.L233
1136:User_BSP/OLED.c ****     uint8_t i, j;
 3049              		.loc 1 1136 46 view .LVU793
 3050 005c 5446     		mov	r4, r10
 3051              	.L233:
 3052              	.LVL345:
1159:User_BSP/OLED.c ****         if (Y2 > maxy) { maxy = Y2; }
 3053              		.loc 1 1159 9 is_stmt 1 view .LVU794
 3054              		.loc 1 1159 12 is_stmt 0 view .LVU795
 3055 005e B442     		cmp	r4, r6
 3056 0060 2CD3     		bcc	.L235
 3057 0062 2646     		mov	r6, r4
 3058              	.LVL346:
1160:User_BSP/OLED.c **** 
1161:User_BSP/OLED.c ****         /*жңҖе°ҸжңҖеӨ§еқҗж Үд№Ӣй—ҙзҡ„зҹ©еҪўдёәеҸҜиғҪйңҖиҰҒеЎ«е……зҡ„еҢәеҹҹ*/
1162:User_BSP/OLED.c ****         /*йҒҚеҺҶжӯӨеҢәеҹҹдёӯжүҖжңүзҡ„зӮ№*/
1163:User_BSP/OLED.c ****         /*йҒҚеҺҶXеқҗж Ү*/
1164:User_BSP/OLED.c ****         for (i = minx; i <= maxx; i++) {
 3059              		.loc 1 1164 9 is_stmt 1 view .LVU796
 3060              		.loc 1 1164 9 is_stmt 0 view .LVU797
 3061 0064 2AE0     		b	.L235
 3062              	.LVL347:
 3063              	.L245:
1144:User_BSP/OLED.c ****         OLED_DrawLine(X0, Y0, X2, Y2);
 3064              		.loc 1 1144 9 is_stmt 1 view .LVU798
 3065 0066 2346     		mov	r3, r4
 3066 0068 FFF7FEFF 		bl	OLED_DrawLine
ARM GAS  C:\Users\bubble\AppData\Local\Temp\ccRMWmKE.s 			page 82


 3067              	.LVL348:
1145:User_BSP/OLED.c ****         OLED_DrawLine(X1, Y1, X2, Y2);
 3068              		.loc 1 1145 9 view .LVU799
 3069 006c 3346     		mov	r3, r6
 3070 006e 3A46     		mov	r2, r7
 3071 0070 5146     		mov	r1, r10
 3072 0072 5846     		mov	r0, fp
 3073 0074 FFF7FEFF 		bl	OLED_DrawLine
 3074              	.LVL349:
1146:User_BSP/OLED.c ****     } else // жҢҮе®ҡдёүи§’еҪўеЎ«е……
 3075              		.loc 1 1146 9 view .LVU800
 3076 0078 3346     		mov	r3, r6
 3077 007a 3A46     		mov	r2, r7
 3078 007c 2146     		mov	r1, r4
 3079 007e 4846     		mov	r0, r9
 3080 0080 FFF7FEFF 		bl	OLED_DrawLine
 3081              	.LVL350:
 3082              	.L224:
1165:User_BSP/OLED.c ****             /*йҒҚеҺҶYеқҗж Ү*/
1166:User_BSP/OLED.c ****             for (j = miny; j <= maxy; j++) {
1167:User_BSP/OLED.c ****                 /*и°ғз”ЁOLED_pnpolyпјҢеҲӨж–ӯжҢҮе®ҡзӮ№жҳҜеҗҰеңЁжҢҮе®ҡдёүи§’еҪўд№Ӣдёӯ*/
1168:User_BSP/OLED.c ****                 /*еҰӮжһңеңЁпјҢеҲҷз”»зӮ№пјҢеҰӮжһңдёҚеңЁпјҢеҲҷдёҚеҒҡеӨ„зҗҶ*/
1169:User_BSP/OLED.c ****                 if (OLED_pnpoly(3, vx, vy, i, j)) { OLED_DrawPoint(i, j); }
1170:User_BSP/OLED.c ****             }
1171:User_BSP/OLED.c ****         }
1172:User_BSP/OLED.c ****     }
1173:User_BSP/OLED.c **** }
 3083              		.loc 1 1173 1 is_stmt 0 view .LVU801
 3084 0084 07B0     		add	sp, sp, #28
 3085              	.LCFI48:
 3086              		.cfi_remember_state
 3087              		.cfi_def_cfa_offset 36
 3088              		@ sp needed
 3089 0086 BDE8F08F 		pop	{r4, r5, r6, r7, r8, r9, r10, fp, pc}
 3090              	.LVL351:
 3091              	.L239:
 3092              	.LCFI49:
 3093              		.cfi_restore_state
1150:User_BSP/OLED.c ****         if (X2 < minx) { minx = X2; }
 3094              		.loc 1 1150 31 view .LVU802
 3095 008a 1546     		mov	r5, r2
 3096 008c D5E7     		b	.L227
 3097              	.LVL352:
 3098              	.L241:
1152:User_BSP/OLED.c ****         if (Y2 < miny) { miny = Y2; }
 3099              		.loc 1 1152 31 view .LVU803
 3100 008e A046     		mov	r8, r4
 3101 0090 D9E7     		b	.L229
 3102              	.LVL353:
 3103              	.L236:
1166:User_BSP/OLED.c ****                 /*и°ғз”ЁOLED_pnpolyпјҢеҲӨж–ӯжҢҮе®ҡзӮ№жҳҜеҗҰеңЁжҢҮе®ҡдёүи§’еҪўд№Ӣдёӯ*/
 3104              		.loc 1 1166 39 is_stmt 1 discriminator 2 view .LVU804
1166:User_BSP/OLED.c ****                 /*и°ғз”ЁOLED_pnpolyпјҢеҲӨж–ӯжҢҮе®ҡзӮ№жҳҜеҗҰеңЁжҢҮе®ҡдёүи§’еҪўд№Ӣдёӯ*/
 3105              		.loc 1 1166 40 is_stmt 0 discriminator 2 view .LVU805
 3106 0092 0134     		adds	r4, r4, #1
 3107              	.LVL354:
1166:User_BSP/OLED.c ****                 /*и°ғз”ЁOLED_pnpolyпјҢеҲӨж–ӯжҢҮе®ҡзӮ№жҳҜеҗҰеңЁжҢҮе®ҡдёүи§’еҪўд№Ӣдёӯ*/
ARM GAS  C:\Users\bubble\AppData\Local\Temp\ccRMWmKE.s 			page 83


 3108              		.loc 1 1166 40 discriminator 2 view .LVU806
 3109 0094 E4B2     		uxtb	r4, r4
 3110              	.LVL355:
 3111              	.L238:
1166:User_BSP/OLED.c ****                 /*и°ғз”ЁOLED_pnpolyпјҢеҲӨж–ӯжҢҮе®ҡзӮ№жҳҜеҗҰеңЁжҢҮе®ҡдёүи§’еҪўд№Ӣдёӯ*/
 3112              		.loc 1 1166 28 is_stmt 1 discriminator 1 view .LVU807
1166:User_BSP/OLED.c ****                 /*и°ғз”ЁOLED_pnpolyпјҢеҲӨж–ӯжҢҮе®ҡзӮ№жҳҜеҗҰеңЁжҢҮе®ҡдёүи§’еҪўд№Ӣдёӯ*/
 3113              		.loc 1 1166 13 is_stmt 0 discriminator 1 view .LVU808
 3114 0096 A642     		cmp	r6, r4
 3115 0098 0ED3     		bcc	.L246
1169:User_BSP/OLED.c ****             }
 3116              		.loc 1 1169 17 is_stmt 1 view .LVU809
1169:User_BSP/OLED.c ****             }
 3117              		.loc 1 1169 21 is_stmt 0 view .LVU810
 3118 009a 23B2     		sxth	r3, r4
 3119 009c 0093     		str	r3, [sp]
 3120 009e 2BB2     		sxth	r3, r5
 3121 00a0 02AA     		add	r2, sp, #8
 3122 00a2 04A9     		add	r1, sp, #16
 3123 00a4 0320     		movs	r0, #3
 3124 00a6 FFF7FEFF 		bl	OLED_pnpoly
 3125              	.LVL356:
1169:User_BSP/OLED.c ****             }
 3126              		.loc 1 1169 20 view .LVU811
 3127 00aa 0028     		cmp	r0, #0
 3128 00ac F1D0     		beq	.L236
1169:User_BSP/OLED.c ****             }
 3129              		.loc 1 1169 53 is_stmt 1 discriminator 1 view .LVU812
 3130 00ae 2146     		mov	r1, r4
 3131 00b0 2846     		mov	r0, r5
 3132 00b2 FFF7FEFF 		bl	OLED_DrawPoint
 3133              	.LVL357:
 3134 00b6 ECE7     		b	.L236
 3135              	.L246:
1164:User_BSP/OLED.c ****             /*йҒҚеҺҶYеқҗж Ү*/
 3136              		.loc 1 1164 35 discriminator 2 view .LVU813
1164:User_BSP/OLED.c ****             /*йҒҚеҺҶYеқҗж Ү*/
 3137              		.loc 1 1164 36 is_stmt 0 discriminator 2 view .LVU814
 3138 00b8 0135     		adds	r5, r5, #1
 3139              	.LVL358:
1164:User_BSP/OLED.c ****             /*йҒҚеҺҶYеқҗж Ү*/
 3140              		.loc 1 1164 36 discriminator 2 view .LVU815
 3141 00ba EDB2     		uxtb	r5, r5
 3142              	.LVL359:
 3143              	.L235:
1164:User_BSP/OLED.c ****             /*йҒҚеҺҶYеқҗж Ү*/
 3144              		.loc 1 1164 24 is_stmt 1 discriminator 1 view .LVU816
1164:User_BSP/OLED.c ****             /*йҒҚеҺҶYеқҗж Ү*/
 3145              		.loc 1 1164 9 is_stmt 0 discriminator 1 view .LVU817
 3146 00bc AF42     		cmp	r7, r5
 3147 00be E1D3     		bcc	.L224
1166:User_BSP/OLED.c ****                 /*и°ғз”ЁOLED_pnpolyпјҢеҲӨж–ӯжҢҮе®ҡзӮ№жҳҜеҗҰеңЁжҢҮе®ҡдёүи§’еҪўд№Ӣдёӯ*/
 3148              		.loc 1 1166 20 view .LVU818
 3149 00c0 4446     		mov	r4, r8
 3150 00c2 E8E7     		b	.L238
 3151              		.cfi_endproc
 3152              	.LFE272:
ARM GAS  C:\Users\bubble\AppData\Local\Temp\ccRMWmKE.s 			page 84


 3154              		.section	.text.OLED_DrawCircle,"ax",%progbits
 3155              		.align	1
 3156              		.global	OLED_DrawCircle
 3157              		.syntax unified
 3158              		.thumb
 3159              		.thumb_func
 3161              	OLED_DrawCircle:
 3162              	.LVL360:
 3163              	.LFB273:
1174:User_BSP/OLED.c **** 
1175:User_BSP/OLED.c **** /**
1176:User_BSP/OLED.c ****  * @brief OLEDз”»еңҶ
1177:User_BSP/OLED.c ****  * @param X жҢҮе®ҡеңҶзҡ„еңҶеҝғжЁӘеқҗж ҮпјҢиҢғеӣҙпјҡ0~127
1178:User_BSP/OLED.c ****  * @param Y жҢҮе®ҡеңҶзҡ„еңҶеҝғзәөеқҗж ҮпјҢиҢғеӣҙпјҡ0~63
1179:User_BSP/OLED.c ****  * @param Radius жҢҮе®ҡеңҶзҡ„еҚҠеҫ„пјҢиҢғеӣҙпјҡ0~255
1180:User_BSP/OLED.c ****  * @param IsFilled жҢҮе®ҡеңҶжҳҜеҗҰеЎ«е……
1181:User_BSP/OLED.c ****  *           иҢғеӣҙпјҡOLED_UNFILLED		дёҚеЎ«е……
1182:User_BSP/OLED.c ****  *                 OLED_FILLED			еЎ«е……
1183:User_BSP/OLED.c ****  * @return ж— 
1184:User_BSP/OLED.c ****  * @note и°ғз”ЁжӯӨеҮҪж•°еҗҺпјҢиҰҒжғізңҹжӯЈең°е‘ҲзҺ°еңЁеұҸе№•дёҠпјҢиҝҳйңҖи°ғз”Ёжӣҙж–°еҮҪж•°
1185:User_BSP/OLED.c ****  */
1186:User_BSP/OLED.c **** void OLED_DrawCircle(uint8_t X, uint8_t Y, uint8_t Radius, uint8_t IsFilled)
1187:User_BSP/OLED.c **** {
 3164              		.loc 1 1187 1 is_stmt 1 view -0
 3165              		.cfi_startproc
 3166              		@ args = 0, pretend = 0, frame = 32
 3167              		@ frame_needed = 0, uses_anonymous_args = 0
 3168              		.loc 1 1187 1 is_stmt 0 view .LVU820
 3169 0000 2DE9F04F 		push	{r4, r5, r6, r7, r8, r9, r10, fp, lr}
 3170              	.LCFI50:
 3171              		.cfi_def_cfa_offset 36
 3172              		.cfi_offset 4, -36
 3173              		.cfi_offset 5, -32
 3174              		.cfi_offset 6, -28
 3175              		.cfi_offset 7, -24
 3176              		.cfi_offset 8, -20
 3177              		.cfi_offset 9, -16
 3178              		.cfi_offset 10, -12
 3179              		.cfi_offset 11, -8
 3180              		.cfi_offset 14, -4
 3181 0004 89B0     		sub	sp, sp, #36
 3182              	.LCFI51:
 3183              		.cfi_def_cfa_offset 72
 3184 0006 0646     		mov	r6, r0
 3185 0008 0190     		str	r0, [sp, #4]
 3186 000a 8A46     		mov	r10, r1
 3187 000c 1546     		mov	r5, r2
 3188 000e 1F46     		mov	r7, r3
 3189 0010 0793     		str	r3, [sp, #28]
1188:User_BSP/OLED.c ****     int16_t x, y, d, j;
 3190              		.loc 1 1188 5 is_stmt 1 view .LVU821
1189:User_BSP/OLED.c **** 
1190:User_BSP/OLED.c ****     /*дҪҝз”ЁBresenhamз®—жі•з”»еңҶпјҢеҸҜд»ҘйҒҝе…ҚиҖ—ж—¶зҡ„жө®зӮ№иҝҗз®—пјҢж•ҲзҺҮжӣҙй«ҳ*/
1191:User_BSP/OLED.c ****     /*еҸӮиҖғж–ҮжЎЈпјҡhttps://www.cs.montana.edu/courses/spring2009/425/dslectures/Bresenham.pdf*/
1192:User_BSP/OLED.c ****     /*еҸӮиҖғж•ҷзЁӢпјҡhttps://www.bilibili.com/video/BV1VM4y1u7wJ*/
1193:User_BSP/OLED.c **** 
1194:User_BSP/OLED.c ****     d = 1 - Radius;
ARM GAS  C:\Users\bubble\AppData\Local\Temp\ccRMWmKE.s 			page 85


 3191              		.loc 1 1194 5 view .LVU822
 3192              		.loc 1 1194 11 is_stmt 0 view .LVU823
 3193 0012 94B2     		uxth	r4, r2
 3194              		.loc 1 1194 7 view .LVU824
 3195 0014 C2F10102 		rsb	r2, r2, #1
 3196              	.LVL361:
 3197              		.loc 1 1194 7 view .LVU825
 3198 0018 0392     		str	r2, [sp, #12]
 3199              	.LVL362:
1195:User_BSP/OLED.c ****     x = 0;
 3200              		.loc 1 1195 5 is_stmt 1 view .LVU826
1196:User_BSP/OLED.c ****     y = Radius;
 3201              		.loc 1 1196 5 view .LVU827
 3202              		.loc 1 1196 7 is_stmt 0 view .LVU828
 3203 001a 0FFA85FB 		sxth	fp, r5
 3204              	.LVL363:
1197:User_BSP/OLED.c **** 
1198:User_BSP/OLED.c ****     /*з”»жҜҸдёӘе…«еҲҶд№ӢдёҖеңҶеј§зҡ„иө·е§ӢзӮ№*/
1199:User_BSP/OLED.c ****     OLED_DrawPoint(X + x, Y + y);
 3205              		.loc 1 1199 5 is_stmt 1 view .LVU829
 3206 001e 6918     		adds	r1, r5, r1
 3207              	.LVL364:
 3208              		.loc 1 1199 5 is_stmt 0 view .LVU830
 3209 0020 C9B2     		uxtb	r1, r1
 3210 0022 FFF7FEFF 		bl	OLED_DrawPoint
 3211              	.LVL365:
1200:User_BSP/OLED.c ****     OLED_DrawPoint(X - x, Y - y);
 3212              		.loc 1 1200 5 is_stmt 1 view .LVU831
 3213 0026 AAEB0501 		sub	r1, r10, r5
 3214 002a C9B2     		uxtb	r1, r1
 3215 002c 3046     		mov	r0, r6
 3216 002e FFF7FEFF 		bl	OLED_DrawPoint
 3217              	.LVL366:
1201:User_BSP/OLED.c ****     OLED_DrawPoint(X + y, Y + x);
 3218              		.loc 1 1201 5 view .LVU832
 3219 0032 A819     		adds	r0, r5, r6
 3220 0034 5146     		mov	r1, r10
 3221 0036 C0B2     		uxtb	r0, r0
 3222 0038 FFF7FEFF 		bl	OLED_DrawPoint
 3223              	.LVL367:
1202:User_BSP/OLED.c ****     OLED_DrawPoint(X - y, Y - x);
 3224              		.loc 1 1202 5 view .LVU833
 3225 003c 701B     		subs	r0, r6, r5
 3226 003e 5146     		mov	r1, r10
 3227 0040 C0B2     		uxtb	r0, r0
 3228 0042 FFF7FEFF 		bl	OLED_DrawPoint
 3229              	.LVL368:
1203:User_BSP/OLED.c **** 
1204:User_BSP/OLED.c ****     if (IsFilled) // жҢҮе®ҡеңҶеЎ«е……
 3230              		.loc 1 1204 5 view .LVU834
 3231              		.loc 1 1204 8 is_stmt 0 view .LVU835
 3232 0046 6FB1     		cbz	r7, .L248
1205:User_BSP/OLED.c ****     {
1206:User_BSP/OLED.c ****         /*йҒҚеҺҶиө·е§ӢзӮ№Yеқҗж Ү*/
1207:User_BSP/OLED.c ****         for (j = -y; j < y; j++) {
 3233              		.loc 1 1207 9 is_stmt 1 view .LVU836
 3234              		.loc 1 1207 16 is_stmt 0 view .LVU837
ARM GAS  C:\Users\bubble\AppData\Local\Temp\ccRMWmKE.s 			page 86


 3235 0048 6442     		rsbs	r4, r4, #0
 3236 004a 24B2     		sxth	r4, r4
 3237              	.LVL369:
 3238              		.loc 1 1207 16 view .LVU838
 3239 004c 3546     		mov	r5, r6
 3240              		.loc 1 1207 9 view .LVU839
 3241 004e 07E0     		b	.L249
 3242              	.L250:
1208:User_BSP/OLED.c ****             /*еңЁжҢҮе®ҡеҢәеҹҹз”»зӮ№пјҢеЎ«е……йғЁеҲҶеңҶ*/
1209:User_BSP/OLED.c ****             OLED_DrawPoint(X, Y + j);
 3243              		.loc 1 1209 13 is_stmt 1 discriminator 3 view .LVU840
 3244 0050 0AEB0401 		add	r1, r10, r4
 3245 0054 C9B2     		uxtb	r1, r1
 3246 0056 2846     		mov	r0, r5
 3247 0058 FFF7FEFF 		bl	OLED_DrawPoint
 3248              	.LVL370:
1207:User_BSP/OLED.c ****             /*еңЁжҢҮе®ҡеҢәеҹҹз”»зӮ№пјҢеЎ«е……йғЁеҲҶеңҶ*/
 3249              		.loc 1 1207 29 discriminator 3 view .LVU841
1207:User_BSP/OLED.c ****             /*еңЁжҢҮе®ҡеҢәеҹҹз”»зӮ№пјҢеЎ«е……йғЁеҲҶеңҶ*/
 3250              		.loc 1 1207 30 is_stmt 0 discriminator 3 view .LVU842
 3251 005c 0134     		adds	r4, r4, #1
 3252              	.LVL371:
1207:User_BSP/OLED.c ****             /*еңЁжҢҮе®ҡеҢәеҹҹз”»зӮ№пјҢеЎ«е……йғЁеҲҶеңҶ*/
 3253              		.loc 1 1207 30 discriminator 3 view .LVU843
 3254 005e 24B2     		sxth	r4, r4
 3255              	.LVL372:
 3256              	.L249:
1207:User_BSP/OLED.c ****             /*еңЁжҢҮе®ҡеҢәеҹҹз”»зӮ№пјҢеЎ«е……йғЁеҲҶеңҶ*/
 3257              		.loc 1 1207 22 is_stmt 1 discriminator 1 view .LVU844
1207:User_BSP/OLED.c ****             /*еңЁжҢҮе®ҡеҢәеҹҹз”»зӮ№пјҢеЎ«е……йғЁеҲҶеңҶ*/
 3258              		.loc 1 1207 9 is_stmt 0 discriminator 1 view .LVU845
 3259 0060 5C45     		cmp	r4, fp
 3260 0062 F5DB     		blt	.L250
 3261              	.LVL373:
 3262              	.L248:
1187:User_BSP/OLED.c ****     int16_t x, y, d, j;
 3263              		.loc 1 1187 1 view .LVU846
 3264 0064 0023     		movs	r3, #0
 3265 0066 0293     		str	r3, [sp, #8]
 3266 0068 47E0     		b	.L251
 3267              	.LVL374:
 3268              	.L263:
1210:User_BSP/OLED.c ****         }
1211:User_BSP/OLED.c ****     }
1212:User_BSP/OLED.c **** 
1213:User_BSP/OLED.c ****     while (x < y) // йҒҚеҺҶXиҪҙзҡ„жҜҸдёӘзӮ№
1214:User_BSP/OLED.c ****     {
1215:User_BSP/OLED.c ****         x++;
1216:User_BSP/OLED.c ****         if (d < 0) // дёӢдёҖдёӘзӮ№еңЁеҪ“еүҚзӮ№дёңж–№
1217:User_BSP/OLED.c ****         {
1218:User_BSP/OLED.c ****             d += 2 * x + 1;
 3269              		.loc 1 1218 13 is_stmt 1 view .LVU847
 3270              		.loc 1 1218 20 is_stmt 0 view .LVU848
 3271 006a 6300     		lsls	r3, r4, #1
 3272 006c 9BB2     		uxth	r3, r3
 3273              		.loc 1 1218 15 view .LVU849
 3274 006e 1344     		add	r3, r3, r2
ARM GAS  C:\Users\bubble\AppData\Local\Temp\ccRMWmKE.s 			page 87


 3275 0070 0133     		adds	r3, r3, #1
 3276 0072 1BB2     		sxth	r3, r3
 3277 0074 0393     		str	r3, [sp, #12]
 3278              	.LVL375:
 3279              	.L253:
1219:User_BSP/OLED.c ****         } else // дёӢдёҖдёӘзӮ№еңЁеҪ“еүҚзӮ№дёңеҚ—ж–№
1220:User_BSP/OLED.c ****         {
1221:User_BSP/OLED.c ****             y--;
1222:User_BSP/OLED.c ****             d += 2 * (x - y) + 1;
1223:User_BSP/OLED.c ****         }
1224:User_BSP/OLED.c **** 
1225:User_BSP/OLED.c ****         /*з”»жҜҸдёӘе…«еҲҶд№ӢдёҖеңҶеј§зҡ„зӮ№*/
1226:User_BSP/OLED.c ****         OLED_DrawPoint(X + x, Y + y);
 3280              		.loc 1 1226 9 is_stmt 1 view .LVU850
 3281 0076 E4B2     		uxtb	r4, r4
 3282 0078 019E     		ldr	r6, [sp, #4]
 3283 007a A719     		adds	r7, r4, r6
 3284 007c FFB2     		uxtb	r7, r7
 3285 007e 5FFA8BF5 		uxtb	r5, fp
 3286 0082 05EB0A03 		add	r3, r5, r10
 3287 0086 DBB2     		uxtb	r3, r3
 3288 0088 0493     		str	r3, [sp, #16]
 3289 008a 1946     		mov	r1, r3
 3290 008c 3846     		mov	r0, r7
 3291 008e FFF7FEFF 		bl	OLED_DrawPoint
 3292              	.LVL376:
1227:User_BSP/OLED.c ****         OLED_DrawPoint(X + y, Y + x);
 3293              		.loc 1 1227 9 view .LVU851
 3294 0092 0196     		str	r6, [sp, #4]
 3295 0094 AE19     		adds	r6, r5, r6
 3296 0096 F6B2     		uxtb	r6, r6
 3297 0098 04EB0A03 		add	r3, r4, r10
 3298 009c DAB2     		uxtb	r2, r3
 3299 009e 0592     		str	r2, [sp, #20]
 3300 00a0 1146     		mov	r1, r2
 3301 00a2 3046     		mov	r0, r6
 3302 00a4 FFF7FEFF 		bl	OLED_DrawPoint
 3303              	.LVL377:
1228:User_BSP/OLED.c ****         OLED_DrawPoint(X - x, Y - y);
 3304              		.loc 1 1228 9 view .LVU852
 3305 00a8 019B     		ldr	r3, [sp, #4]
 3306 00aa A3EB0408 		sub	r8, r3, r4
 3307 00ae 5FFA88F8 		uxtb	r8, r8
 3308 00b2 AAEB0509 		sub	r9, r10, r5
 3309 00b6 5FFA89F9 		uxtb	r9, r9
 3310 00ba 4946     		mov	r1, r9
 3311 00bc 4046     		mov	r0, r8
 3312 00be FFF7FEFF 		bl	OLED_DrawPoint
 3313              	.LVL378:
1229:User_BSP/OLED.c ****         OLED_DrawPoint(X - y, Y - x);
 3314              		.loc 1 1229 9 view .LVU853
 3315 00c2 019B     		ldr	r3, [sp, #4]
 3316 00c4 5D1B     		subs	r5, r3, r5
 3317 00c6 EDB2     		uxtb	r5, r5
 3318 00c8 AAEB0404 		sub	r4, r10, r4
 3319 00cc E4B2     		uxtb	r4, r4
 3320 00ce 2146     		mov	r1, r4
ARM GAS  C:\Users\bubble\AppData\Local\Temp\ccRMWmKE.s 			page 88


 3321 00d0 2846     		mov	r0, r5
 3322 00d2 FFF7FEFF 		bl	OLED_DrawPoint
 3323              	.LVL379:
1230:User_BSP/OLED.c ****         OLED_DrawPoint(X + x, Y - y);
 3324              		.loc 1 1230 9 view .LVU854
 3325 00d6 4946     		mov	r1, r9
 3326 00d8 3846     		mov	r0, r7
 3327 00da FFF7FEFF 		bl	OLED_DrawPoint
 3328              	.LVL380:
1231:User_BSP/OLED.c ****         OLED_DrawPoint(X + y, Y - x);
 3329              		.loc 1 1231 9 view .LVU855
 3330 00de 2146     		mov	r1, r4
 3331 00e0 3046     		mov	r0, r6
 3332 00e2 FFF7FEFF 		bl	OLED_DrawPoint
 3333              	.LVL381:
1232:User_BSP/OLED.c ****         OLED_DrawPoint(X - x, Y + y);
 3334              		.loc 1 1232 9 view .LVU856
 3335 00e6 0499     		ldr	r1, [sp, #16]
 3336 00e8 4046     		mov	r0, r8
 3337 00ea FFF7FEFF 		bl	OLED_DrawPoint
 3338              	.LVL382:
1233:User_BSP/OLED.c ****         OLED_DrawPoint(X - y, Y + x);
 3339              		.loc 1 1233 9 view .LVU857
 3340 00ee 0599     		ldr	r1, [sp, #20]
 3341 00f0 2846     		mov	r0, r5
 3342 00f2 FFF7FEFF 		bl	OLED_DrawPoint
 3343              	.LVL383:
1234:User_BSP/OLED.c **** 
1235:User_BSP/OLED.c ****         if (IsFilled) // жҢҮе®ҡеңҶеЎ«е……
 3344              		.loc 1 1235 9 view .LVU858
 3345              		.loc 1 1235 12 is_stmt 0 view .LVU859
 3346 00f6 079B     		ldr	r3, [sp, #28]
 3347 00f8 D3B9     		cbnz	r3, .L261
 3348              	.LVL384:
 3349              	.L251:
1213:User_BSP/OLED.c ****     {
 3350              		.loc 1 1213 11 is_stmt 1 view .LVU860
 3351 00fa 029B     		ldr	r3, [sp, #8]
 3352 00fc 5B45     		cmp	r3, fp
 3353 00fe 41DA     		bge	.L262
1215:User_BSP/OLED.c ****         if (d < 0) // дёӢдёҖдёӘзӮ№еңЁеҪ“еүҚзӮ№дёңж–№
 3354              		.loc 1 1215 9 view .LVU861
1215:User_BSP/OLED.c ****         if (d < 0) // дёӢдёҖдёӘзӮ№еңЁеҪ“еүҚзӮ№дёңж–№
 3355              		.loc 1 1215 10 is_stmt 0 view .LVU862
 3356 0100 BDF80830 		ldrh	r3, [sp, #8]
 3357 0104 0693     		str	r3, [sp, #24]
 3358 0106 0133     		adds	r3, r3, #1
 3359 0108 9CB2     		uxth	r4, r3
 3360 010a 1BB2     		sxth	r3, r3
 3361 010c 0293     		str	r3, [sp, #8]
 3362              	.LVL385:
1216:User_BSP/OLED.c ****         {
 3363              		.loc 1 1216 9 is_stmt 1 view .LVU863
1216:User_BSP/OLED.c ****         {
 3364              		.loc 1 1216 12 is_stmt 0 view .LVU864
 3365 010e 039A     		ldr	r2, [sp, #12]
 3366 0110 002A     		cmp	r2, #0
ARM GAS  C:\Users\bubble\AppData\Local\Temp\ccRMWmKE.s 			page 89


 3367 0112 AADB     		blt	.L263
1221:User_BSP/OLED.c ****             d += 2 * (x - y) + 1;
 3368              		.loc 1 1221 13 is_stmt 1 view .LVU865
1221:User_BSP/OLED.c ****             d += 2 * (x - y) + 1;
 3369              		.loc 1 1221 14 is_stmt 0 view .LVU866
 3370 0114 0BF1FF3B 		add	fp, fp, #-1
 3371              	.LVL386:
1221:User_BSP/OLED.c ****             d += 2 * (x - y) + 1;
 3372              		.loc 1 1221 14 view .LVU867
 3373 0118 0FFA8BFB 		sxth	fp, fp
 3374              	.LVL387:
1222:User_BSP/OLED.c ****         }
 3375              		.loc 1 1222 13 is_stmt 1 view .LVU868
1222:User_BSP/OLED.c ****         }
 3376              		.loc 1 1222 25 is_stmt 0 view .LVU869
 3377 011c 029B     		ldr	r3, [sp, #8]
 3378 011e A3EB0B03 		sub	r3, r3, fp
1222:User_BSP/OLED.c ****         }
 3379              		.loc 1 1222 15 view .LVU870
 3380 0122 039A     		ldr	r2, [sp, #12]
 3381 0124 02EB4303 		add	r3, r2, r3, lsl #1
 3382 0128 0133     		adds	r3, r3, #1
 3383 012a 1BB2     		sxth	r3, r3
 3384 012c 0393     		str	r3, [sp, #12]
 3385              	.LVL388:
1222:User_BSP/OLED.c ****         }
 3386              		.loc 1 1222 15 view .LVU871
 3387 012e A2E7     		b	.L253
 3388              	.L261:
1236:User_BSP/OLED.c ****         {
1237:User_BSP/OLED.c ****             /*йҒҚеҺҶдёӯй—ҙйғЁеҲҶ*/
1238:User_BSP/OLED.c ****             for (j = -y; j < y; j++) {
 3389              		.loc 1 1238 13 is_stmt 1 view .LVU872
 3390              		.loc 1 1238 20 is_stmt 0 view .LVU873
 3391 0130 CBF10004 		rsb	r4, fp, #0
 3392 0134 24B2     		sxth	r4, r4
 3393              	.LVL389:
 3394              		.loc 1 1238 13 view .LVU874
 3395 0136 0DE0     		b	.L255
 3396              	.L256:
1239:User_BSP/OLED.c ****                 /*еңЁжҢҮе®ҡеҢәеҹҹз”»зӮ№пјҢеЎ«е……йғЁеҲҶеңҶ*/
1240:User_BSP/OLED.c ****                 OLED_DrawPoint(X + x, Y + j);
 3397              		.loc 1 1240 17 is_stmt 1 discriminator 3 view .LVU875
 3398 0138 0AEB0409 		add	r9, r10, r4
 3399 013c 5FFA89F9 		uxtb	r9, r9
 3400 0140 4946     		mov	r1, r9
 3401 0142 3846     		mov	r0, r7
 3402 0144 FFF7FEFF 		bl	OLED_DrawPoint
 3403              	.LVL390:
1241:User_BSP/OLED.c ****                 OLED_DrawPoint(X - x, Y + j);
 3404              		.loc 1 1241 17 discriminator 3 view .LVU876
 3405 0148 4946     		mov	r1, r9
 3406 014a 4046     		mov	r0, r8
 3407 014c FFF7FEFF 		bl	OLED_DrawPoint
 3408              	.LVL391:
1238:User_BSP/OLED.c ****                 /*еңЁжҢҮе®ҡеҢәеҹҹз”»зӮ№пјҢеЎ«е……йғЁеҲҶеңҶ*/
 3409              		.loc 1 1238 33 discriminator 3 view .LVU877
ARM GAS  C:\Users\bubble\AppData\Local\Temp\ccRMWmKE.s 			page 90


1238:User_BSP/OLED.c ****                 /*еңЁжҢҮе®ҡеҢәеҹҹз”»зӮ№пјҢеЎ«е……йғЁеҲҶеңҶ*/
 3410              		.loc 1 1238 34 is_stmt 0 discriminator 3 view .LVU878
 3411 0150 0134     		adds	r4, r4, #1
 3412              	.LVL392:
1238:User_BSP/OLED.c ****                 /*еңЁжҢҮе®ҡеҢәеҹҹз”»зӮ№пјҢеЎ«е……йғЁеҲҶеңҶ*/
 3413              		.loc 1 1238 34 discriminator 3 view .LVU879
 3414 0152 24B2     		sxth	r4, r4
 3415              	.LVL393:
 3416              	.L255:
1238:User_BSP/OLED.c ****                 /*еңЁжҢҮе®ҡеҢәеҹҹз”»зӮ№пјҢеЎ«е……йғЁеҲҶеңҶ*/
 3417              		.loc 1 1238 26 is_stmt 1 discriminator 1 view .LVU880
1238:User_BSP/OLED.c ****                 /*еңЁжҢҮе®ҡеҢәеҹҹз”»зӮ№пјҢеЎ«е……йғЁеҲҶеңҶ*/
 3418              		.loc 1 1238 13 is_stmt 0 discriminator 1 view .LVU881
 3419 0154 A345     		cmp	fp, r4
 3420 0156 EFDC     		bgt	.L256
1242:User_BSP/OLED.c ****             }
1243:User_BSP/OLED.c **** 
1244:User_BSP/OLED.c ****             /*йҒҚеҺҶдёӨдҫ§йғЁеҲҶ*/
1245:User_BSP/OLED.c ****             for (j = -x; j < x; j++) {
 3421              		.loc 1 1245 13 is_stmt 1 view .LVU882
 3422              		.loc 1 1245 20 is_stmt 0 view .LVU883
 3423 0158 069B     		ldr	r3, [sp, #24]
 3424 015a DC43     		mvns	r4, r3
 3425              	.LVL394:
 3426              		.loc 1 1245 20 view .LVU884
 3427 015c 24B2     		sxth	r4, r4
 3428              	.LVL395:
 3429              		.loc 1 1245 20 view .LVU885
 3430 015e DDF80880 		ldr	r8, [sp, #8]
 3431              		.loc 1 1245 13 view .LVU886
 3432 0162 0CE0     		b	.L257
 3433              	.L258:
1246:User_BSP/OLED.c ****                 /*еңЁжҢҮе®ҡеҢәеҹҹз”»зӮ№пјҢеЎ«е……йғЁеҲҶеңҶ*/
1247:User_BSP/OLED.c ****                 OLED_DrawPoint(X - y, Y + j);
 3434              		.loc 1 1247 17 is_stmt 1 discriminator 3 view .LVU887
 3435 0164 0AEB0407 		add	r7, r10, r4
 3436 0168 FFB2     		uxtb	r7, r7
 3437 016a 3946     		mov	r1, r7
 3438 016c 2846     		mov	r0, r5
 3439 016e FFF7FEFF 		bl	OLED_DrawPoint
 3440              	.LVL396:
1248:User_BSP/OLED.c ****                 OLED_DrawPoint(X + y, Y + j);
 3441              		.loc 1 1248 17 discriminator 3 view .LVU888
 3442 0172 3946     		mov	r1, r7
 3443 0174 3046     		mov	r0, r6
 3444 0176 FFF7FEFF 		bl	OLED_DrawPoint
 3445              	.LVL397:
1245:User_BSP/OLED.c ****                 /*еңЁжҢҮе®ҡеҢәеҹҹз”»зӮ№пјҢеЎ«е……йғЁеҲҶеңҶ*/
 3446              		.loc 1 1245 33 discriminator 3 view .LVU889
1245:User_BSP/OLED.c ****                 /*еңЁжҢҮе®ҡеҢәеҹҹз”»зӮ№пјҢеЎ«е……йғЁеҲҶеңҶ*/
 3447              		.loc 1 1245 34 is_stmt 0 discriminator 3 view .LVU890
 3448 017a 0134     		adds	r4, r4, #1
 3449              	.LVL398:
1245:User_BSP/OLED.c ****                 /*еңЁжҢҮе®ҡеҢәеҹҹз”»зӮ№пјҢеЎ«е……йғЁеҲҶеңҶ*/
 3450              		.loc 1 1245 34 discriminator 3 view .LVU891
 3451 017c 24B2     		sxth	r4, r4
 3452              	.LVL399:
ARM GAS  C:\Users\bubble\AppData\Local\Temp\ccRMWmKE.s 			page 91


 3453              	.L257:
1245:User_BSP/OLED.c ****                 /*еңЁжҢҮе®ҡеҢәеҹҹз”»зӮ№пјҢеЎ«е……йғЁеҲҶеңҶ*/
 3454              		.loc 1 1245 26 is_stmt 1 discriminator 1 view .LVU892
1245:User_BSP/OLED.c ****                 /*еңЁжҢҮе®ҡеҢәеҹҹз”»зӮ№пјҢеЎ«е……йғЁеҲҶеңҶ*/
 3455              		.loc 1 1245 13 is_stmt 0 discriminator 1 view .LVU893
 3456 017e 4445     		cmp	r4, r8
 3457 0180 F0DB     		blt	.L258
1245:User_BSP/OLED.c ****                 /*еңЁжҢҮе®ҡеҢәеҹҹз”»зӮ№пјҢеЎ«е……йғЁеҲҶеңҶ*/
 3458              		.loc 1 1245 13 discriminator 1 view .LVU894
 3459 0182 BAE7     		b	.L251
 3460              	.LVL400:
 3461              	.L262:
1249:User_BSP/OLED.c ****             }
1250:User_BSP/OLED.c ****         }
1251:User_BSP/OLED.c ****     }
1252:User_BSP/OLED.c **** }
 3462              		.loc 1 1252 1 view .LVU895
 3463 0184 09B0     		add	sp, sp, #36
 3464              	.LCFI52:
 3465              		.cfi_def_cfa_offset 36
 3466              		@ sp needed
 3467 0186 BDE8F08F 		pop	{r4, r5, r6, r7, r8, r9, r10, fp, pc}
 3468              		.loc 1 1252 1 view .LVU896
 3469              		.cfi_endproc
 3470              	.LFE273:
 3472              		.global	__aeabi_dadd
 3473              		.global	__aeabi_d2f
 3474              		.global	__aeabi_dcmplt
 3475              		.section	.text.OLED_DrawEllipse,"ax",%progbits
 3476              		.align	1
 3477              		.global	OLED_DrawEllipse
 3478              		.syntax unified
 3479              		.thumb
 3480              		.thumb_func
 3482              	OLED_DrawEllipse:
 3483              	.LVL401:
 3484              	.LFB274:
1253:User_BSP/OLED.c **** 
1254:User_BSP/OLED.c **** /**
1255:User_BSP/OLED.c ****  * @brief OLEDз”»жӨӯеңҶ
1256:User_BSP/OLED.c ****  * @param X жҢҮе®ҡжӨӯеңҶзҡ„еңҶеҝғжЁӘеқҗж ҮпјҢиҢғеӣҙпјҡ0~127
