ARM GAS  C:\Users\bubble\AppData\Local\Temp\cc9JhjrW.s 			page 1


   1              		.cpu cortex-m4
   2              		.arch armv7e-m
   3              		.fpu fpv4-sp-d16
   4              		.eabi_attribute 27, 1
   5              		.eabi_attribute 28, 1
   6              		.eabi_attribute 20, 1
   7              		.eabi_attribute 21, 1
   8              		.eabi_attribute 23, 3
   9              		.eabi_attribute 24, 1
  10              		.eabi_attribute 25, 1
  11              		.eabi_attribute 26, 1
  12              		.eabi_attribute 30, 1
  13              		.eabi_attribute 34, 1
  14              		.eabi_attribute 18, 4
  15              		.file	"usart.c"
  16              		.text
  17              	.Ltext0:
  18              		.cfi_sections	.debug_frame
  19              		.section	.text.MX_USART1_UART_Init,"ax",%progbits
  20              		.align	1
  21              		.global	MX_USART1_UART_Init
  22              		.syntax unified
  23              		.thumb
  24              		.thumb_func
  26              	MX_USART1_UART_Init:
  27              	.LFB239:
  28              		.file 1 "Core/Src/usart.c"
   1:Core/Src/usart.c **** /* USER CODE BEGIN Header */
   2:Core/Src/usart.c **** /**
   3:Core/Src/usart.c ****   ******************************************************************************
   4:Core/Src/usart.c ****   * @file    usart.c
   5:Core/Src/usart.c ****   * @brief   This file provides code for the configuration
   6:Core/Src/usart.c ****   *          of the USART instances.
   7:Core/Src/usart.c ****   ******************************************************************************
   8:Core/Src/usart.c ****   * @attention
   9:Core/Src/usart.c ****   *
  10:Core/Src/usart.c ****   * Copyright (c) 2026 STMicroelectronics.
  11:Core/Src/usart.c ****   * All rights reserved.
  12:Core/Src/usart.c ****   *
  13:Core/Src/usart.c ****   * This software is licensed under terms that can be found in the LICENSE file
  14:Core/Src/usart.c ****   * in the root directory of this software component.
  15:Core/Src/usart.c ****   * If no LICENSE file comes with this software, it is provided AS-IS.
  16:Core/Src/usart.c ****   *
  17:Core/Src/usart.c ****   ******************************************************************************
  18:Core/Src/usart.c ****   */
  19:Core/Src/usart.c **** /* USER CODE END Header */
  20:Core/Src/usart.c **** /* Includes ------------------------------------------------------------------*/
  21:Core/Src/usart.c **** #include "usart.h"
  22:Core/Src/usart.c **** 
  23:Core/Src/usart.c **** /* USER CODE BEGIN 0 */
  24:Core/Src/usart.c **** 
  25:Core/Src/usart.c **** /* USER CODE END 0 */
  26:Core/Src/usart.c **** 
  27:Core/Src/usart.c **** UART_HandleTypeDef huart1;
  28:Core/Src/usart.c **** UART_HandleTypeDef huart3;
  29:Core/Src/usart.c **** 
  30:Core/Src/usart.c **** /* USART1 init function */
ARM GAS  C:\Users\bubble\AppData\Local\Temp\cc9JhjrW.s 			page 2


  31:Core/Src/usart.c **** 
  32:Core/Src/usart.c **** void MX_USART1_UART_Init(void)
  33:Core/Src/usart.c **** {
  29              		.loc 1 33 1 view -0
  30              		.cfi_startproc
  31              		@ args = 0, pretend = 0, frame = 0
  32              		@ frame_needed = 0, uses_anonymous_args = 0
  33 0000 08B5     		push	{r3, lr}
  34              	.LCFI0:
  35              		.cfi_def_cfa_offset 8
  36              		.cfi_offset 3, -8
  37              		.cfi_offset 14, -4
  34:Core/Src/usart.c **** 
  35:Core/Src/usart.c ****   /* USER CODE BEGIN USART1_Init 0 */
  36:Core/Src/usart.c **** 
  37:Core/Src/usart.c ****   /* USER CODE END USART1_Init 0 */
  38:Core/Src/usart.c **** 
  39:Core/Src/usart.c ****   /* USER CODE BEGIN USART1_Init 1 */
  40:Core/Src/usart.c **** 
  41:Core/Src/usart.c ****   /* USER CODE END USART1_Init 1 */
  42:Core/Src/usart.c ****   huart1.Instance = USART1;
  38              		.loc 1 42 3 view .LVU1
  39              		.loc 1 42 19 is_stmt 0 view .LVU2
  40 0002 0A48     		ldr	r0, .L5
  41 0004 0A4B     		ldr	r3, .L5+4
  42 0006 0360     		str	r3, [r0]
  43:Core/Src/usart.c ****   huart1.Init.BaudRate = 115200;
  43              		.loc 1 43 3 is_stmt 1 view .LVU3
  44              		.loc 1 43 24 is_stmt 0 view .LVU4
  45 0008 4FF4E133 		mov	r3, #115200
  46 000c 4360     		str	r3, [r0, #4]
  44:Core/Src/usart.c ****   huart1.Init.WordLength = UART_WORDLENGTH_8B;
  47              		.loc 1 44 3 is_stmt 1 view .LVU5
  48              		.loc 1 44 26 is_stmt 0 view .LVU6
  49 000e 0023     		movs	r3, #0
  50 0010 8360     		str	r3, [r0, #8]
  45:Core/Src/usart.c ****   huart1.Init.StopBits = UART_STOPBITS_1;
  51              		.loc 1 45 3 is_stmt 1 view .LVU7
  52              		.loc 1 45 24 is_stmt 0 view .LVU8
  53 0012 C360     		str	r3, [r0, #12]
  46:Core/Src/usart.c ****   huart1.Init.Parity = UART_PARITY_NONE;
  54              		.loc 1 46 3 is_stmt 1 view .LVU9
  55              		.loc 1 46 22 is_stmt 0 view .LVU10
  56 0014 0361     		str	r3, [r0, #16]
  47:Core/Src/usart.c ****   huart1.Init.Mode = UART_MODE_TX_RX;
  57              		.loc 1 47 3 is_stmt 1 view .LVU11
  58              		.loc 1 47 20 is_stmt 0 view .LVU12
  59 0016 0C22     		movs	r2, #12
  60 0018 4261     		str	r2, [r0, #20]
  48:Core/Src/usart.c ****   huart1.Init.HwFlowCtl = UART_HWCONTROL_NONE;
  61              		.loc 1 48 3 is_stmt 1 view .LVU13
  62              		.loc 1 48 25 is_stmt 0 view .LVU14
  63 001a 8361     		str	r3, [r0, #24]
  49:Core/Src/usart.c ****   huart1.Init.OverSampling = UART_OVERSAMPLING_16;
  64              		.loc 1 49 3 is_stmt 1 view .LVU15
  65              		.loc 1 49 28 is_stmt 0 view .LVU16
  66 001c C361     		str	r3, [r0, #28]
ARM GAS  C:\Users\bubble\AppData\Local\Temp\cc9JhjrW.s 			page 3


  50:Core/Src/usart.c ****   if (HAL_UART_Init(&huart1) != HAL_OK)
  67              		.loc 1 50 3 is_stmt 1 view .LVU17
  68              		.loc 1 50 7 is_stmt 0 view .LVU18
  69 001e FFF7FEFF 		bl	HAL_UART_Init
  70              	.LVL0:
  71              		.loc 1 50 6 view .LVU19
  72 0022 00B9     		cbnz	r0, .L4
  73              	.L1:
  51:Core/Src/usart.c ****   {
  52:Core/Src/usart.c ****     Error_Handler();
  53:Core/Src/usart.c ****   }
  54:Core/Src/usart.c ****   /* USER CODE BEGIN USART1_Init 2 */
  55:Core/Src/usart.c **** 
  56:Core/Src/usart.c ****   /* USER CODE END USART1_Init 2 */
  57:Core/Src/usart.c **** 
  58:Core/Src/usart.c **** }
  74              		.loc 1 58 1 view .LVU20
  75 0024 08BD     		pop	{r3, pc}
  76              	.L4:
  52:Core/Src/usart.c ****   }
  77              		.loc 1 52 5 is_stmt 1 view .LVU21
  78 0026 FFF7FEFF 		bl	Error_Handler
  79              	.LVL1:
  80              		.loc 1 58 1 is_stmt 0 view .LVU22
  81 002a FBE7     		b	.L1
  82              	.L6:
  83              		.align	2
  84              	.L5:
  85 002c 00000000 		.word	.LANCHOR0
  86 0030 00100140 		.word	1073811456
  87              		.cfi_endproc
  88              	.LFE239:
  90              		.section	.text.MX_USART3_UART_Init,"ax",%progbits
  91              		.align	1
  92              		.global	MX_USART3_UART_Init
  93              		.syntax unified
  94              		.thumb
  95              		.thumb_func
  97              	MX_USART3_UART_Init:
  98              	.LFB240:
  59:Core/Src/usart.c **** /* USART3 init function */
  60:Core/Src/usart.c **** 
  61:Core/Src/usart.c **** void MX_USART3_UART_Init(void)
  62:Core/Src/usart.c **** {
  99              		.loc 1 62 1 is_stmt 1 view -0
 100              		.cfi_startproc
 101              		@ args = 0, pretend = 0, frame = 0
 102              		@ frame_needed = 0, uses_anonymous_args = 0
 103 0000 08B5     		push	{r3, lr}
 104              	.LCFI1:
 105              		.cfi_def_cfa_offset 8
 106              		.cfi_offset 3, -8
 107              		.cfi_offset 14, -4
  63:Core/Src/usart.c **** 
  64:Core/Src/usart.c ****   /* USER CODE BEGIN USART3_Init 0 */
  65:Core/Src/usart.c **** 
  66:Core/Src/usart.c ****   /* USER CODE END USART3_Init 0 */
ARM GAS  C:\Users\bubble\AppData\Local\Temp\cc9JhjrW.s 			page 4


  67:Core/Src/usart.c **** 
  68:Core/Src/usart.c ****   /* USER CODE BEGIN USART3_Init 1 */
  69:Core/Src/usart.c **** 
  70:Core/Src/usart.c ****   /* USER CODE END USART3_Init 1 */
  71:Core/Src/usart.c ****   huart3.Instance = USART3;
 108              		.loc 1 71 3 view .LVU24
 109              		.loc 1 71 19 is_stmt 0 view .LVU25
 110 0002 0A48     		ldr	r0, .L11
 111 0004 0A4B     		ldr	r3, .L11+4
 112 0006 0360     		str	r3, [r0]
  72:Core/Src/usart.c ****   huart3.Init.BaudRate = 115200;
 113              		.loc 1 72 3 is_stmt 1 view .LVU26
 114              		.loc 1 72 24 is_stmt 0 view .LVU27
 115 0008 4FF4E133 		mov	r3, #115200
 116 000c 4360     		str	r3, [r0, #4]
  73:Core/Src/usart.c ****   huart3.Init.WordLength = UART_WORDLENGTH_8B;
 117              		.loc 1 73 3 is_stmt 1 view .LVU28
 118              		.loc 1 73 26 is_stmt 0 view .LVU29
 119 000e 0023     		movs	r3, #0
 120 0010 8360     		str	r3, [r0, #8]
  74:Core/Src/usart.c ****   huart3.Init.StopBits = UART_STOPBITS_1;
 121              		.loc 1 74 3 is_stmt 1 view .LVU30
 122              		.loc 1 74 24 is_stmt 0 view .LVU31
 123 0012 C360     		str	r3, [r0, #12]
  75:Core/Src/usart.c ****   huart3.Init.Parity = UART_PARITY_NONE;
 124              		.loc 1 75 3 is_stmt 1 view .LVU32
 125              		.loc 1 75 22 is_stmt 0 view .LVU33
 126 0014 0361     		str	r3, [r0, #16]
  76:Core/Src/usart.c ****   huart3.Init.Mode = UART_MODE_TX_RX;
 127              		.loc 1 76 3 is_stmt 1 view .LVU34
 128              		.loc 1 76 20 is_stmt 0 view .LVU35
 129 0016 0C22     		movs	r2, #12
 130 0018 4261     		str	r2, [r0, #20]
  77:Core/Src/usart.c ****   huart3.Init.HwFlowCtl = UART_HWCONTROL_NONE;
 131              		.loc 1 77 3 is_stmt 1 view .LVU36
 132              		.loc 1 77 25 is_stmt 0 view .LVU37
 133 001a 8361     		str	r3, [r0, #24]
  78:Core/Src/usart.c ****   huart3.Init.OverSampling = UART_OVERSAMPLING_16;
 134              		.loc 1 78 3 is_stmt 1 view .LVU38
 135              		.loc 1 78 28 is_stmt 0 view .LVU39
 136 001c C361     		str	r3, [r0, #28]
  79:Core/Src/usart.c ****   if (HAL_UART_Init(&huart3) != HAL_OK)
 137              		.loc 1 79 3 is_stmt 1 view .LVU40
 138              		.loc 1 79 7 is_stmt 0 view .LVU41
 139 001e FFF7FEFF 		bl	HAL_UART_Init
 140              	.LVL2:
 141              		.loc 1 79 6 view .LVU42
 142 0022 00B9     		cbnz	r0, .L10
 143              	.L7:
  80:Core/Src/usart.c ****   {
  81:Core/Src/usart.c ****     Error_Handler();
  82:Core/Src/usart.c ****   }
  83:Core/Src/usart.c ****   /* USER CODE BEGIN USART3_Init 2 */
  84:Core/Src/usart.c **** 
  85:Core/Src/usart.c ****   /* USER CODE END USART3_Init 2 */
  86:Core/Src/usart.c **** 
  87:Core/Src/usart.c **** }
ARM GAS  C:\Users\bubble\AppData\Local\Temp\cc9JhjrW.s 			page 5


 144              		.loc 1 87 1 view .LVU43
 145 0024 08BD     		pop	{r3, pc}
 146              	.L10:
  81:Core/Src/usart.c ****   }
 147              		.loc 1 81 5 is_stmt 1 view .LVU44
 148 0026 FFF7FEFF 		bl	Error_Handler
 149              	.LVL3:
 150              		.loc 1 87 1 is_stmt 0 view .LVU45
 151 002a FBE7     		b	.L7
 152              	.L12:
 153              		.align	2
 154              	.L11:
 155 002c 00000000 		.word	.LANCHOR1
 156 0030 00480040 		.word	1073760256
 157              		.cfi_endproc
 158              	.LFE240:
 160              		.section	.text.HAL_UART_MspInit,"ax",%progbits
 161              		.align	1
 162              		.global	HAL_UART_MspInit
 163              		.syntax unified
 164              		.thumb
 165              		.thumb_func
 167              	HAL_UART_MspInit:
 168              	.LVL4:
 169              	.LFB241:
  88:Core/Src/usart.c **** 
  89:Core/Src/usart.c **** void HAL_UART_MspInit(UART_HandleTypeDef* uartHandle)
  90:Core/Src/usart.c **** {
 170              		.loc 1 90 1 is_stmt 1 view -0
 171              		.cfi_startproc
 172              		@ args = 0, pretend = 0, frame = 40
 173              		@ frame_needed = 0, uses_anonymous_args = 0
 174              		.loc 1 90 1 is_stmt 0 view .LVU47
 175 0000 00B5     		push	{lr}
 176              	.LCFI2:
 177              		.cfi_def_cfa_offset 4
 178              		.cfi_offset 14, -4
 179 0002 8BB0     		sub	sp, sp, #44
 180              	.LCFI3:
 181              		.cfi_def_cfa_offset 48
  91:Core/Src/usart.c **** 
  92:Core/Src/usart.c ****   GPIO_InitTypeDef GPIO_InitStruct = {0};
 182              		.loc 1 92 3 is_stmt 1 view .LVU48
 183              		.loc 1 92 20 is_stmt 0 view .LVU49
 184 0004 0023     		movs	r3, #0
 185 0006 0593     		str	r3, [sp, #20]
 186 0008 0693     		str	r3, [sp, #24]
 187 000a 0793     		str	r3, [sp, #28]
 188 000c 0893     		str	r3, [sp, #32]
 189 000e 0993     		str	r3, [sp, #36]
  93:Core/Src/usart.c ****   if(uartHandle->Instance==USART1)
 190              		.loc 1 93 3 is_stmt 1 view .LVU50
 191              		.loc 1 93 16 is_stmt 0 view .LVU51
 192 0010 0368     		ldr	r3, [r0]
 193              		.loc 1 93 5 view .LVU52
 194 0012 284A     		ldr	r2, .L19
 195 0014 9342     		cmp	r3, r2
ARM GAS  C:\Users\bubble\AppData\Local\Temp\cc9JhjrW.s 			page 6


 196 0016 05D0     		beq	.L17
  94:Core/Src/usart.c ****   {
  95:Core/Src/usart.c ****   /* USER CODE BEGIN USART1_MspInit 0 */
  96:Core/Src/usart.c **** 
  97:Core/Src/usart.c ****   /* USER CODE END USART1_MspInit 0 */
  98:Core/Src/usart.c ****     /* USART1 clock enable */
  99:Core/Src/usart.c ****     __HAL_RCC_USART1_CLK_ENABLE();
 100:Core/Src/usart.c **** 
 101:Core/Src/usart.c ****     __HAL_RCC_GPIOA_CLK_ENABLE();
 102:Core/Src/usart.c ****     /**USART1 GPIO Configuration
 103:Core/Src/usart.c ****     PA9     ------> USART1_TX
 104:Core/Src/usart.c ****     PA10     ------> USART1_RX
 105:Core/Src/usart.c ****     */
 106:Core/Src/usart.c ****     GPIO_InitStruct.Pin = TX1_Pin|RX1_Pin;
 107:Core/Src/usart.c ****     GPIO_InitStruct.Mode = GPIO_MODE_AF_PP;
 108:Core/Src/usart.c ****     GPIO_InitStruct.Pull = GPIO_NOPULL;
 109:Core/Src/usart.c ****     GPIO_InitStruct.Speed = GPIO_SPEED_FREQ_VERY_HIGH;
 110:Core/Src/usart.c ****     GPIO_InitStruct.Alternate = GPIO_AF7_USART1;
 111:Core/Src/usart.c ****     HAL_GPIO_Init(GPIOA, &GPIO_InitStruct);
 112:Core/Src/usart.c **** 
 113:Core/Src/usart.c ****   /* USER CODE BEGIN USART1_MspInit 1 */
 114:Core/Src/usart.c **** 
 115:Core/Src/usart.c ****   /* USER CODE END USART1_MspInit 1 */
 116:Core/Src/usart.c ****   }
 117:Core/Src/usart.c ****   else if(uartHandle->Instance==USART3)
 197              		.loc 1 117 8 is_stmt 1 view .LVU53
 198              		.loc 1 117 10 is_stmt 0 view .LVU54
 199 0018 274A     		ldr	r2, .L19+4
 200 001a 9342     		cmp	r3, r2
 201 001c 26D0     		beq	.L18
 202              	.LVL5:
 203              	.L13:
 118:Core/Src/usart.c ****   {
 119:Core/Src/usart.c ****   /* USER CODE BEGIN USART3_MspInit 0 */
 120:Core/Src/usart.c **** 
 121:Core/Src/usart.c ****   /* USER CODE END USART3_MspInit 0 */
 122:Core/Src/usart.c ****     /* USART3 clock enable */
 123:Core/Src/usart.c ****     __HAL_RCC_USART3_CLK_ENABLE();
 124:Core/Src/usart.c **** 
 125:Core/Src/usart.c ****     __HAL_RCC_GPIOB_CLK_ENABLE();
 126:Core/Src/usart.c ****     /**USART3 GPIO Configuration
 127:Core/Src/usart.c ****     PB10     ------> USART3_TX
 128:Core/Src/usart.c ****     PB11     ------> USART3_RX
 129:Core/Src/usart.c ****     */
 130:Core/Src/usart.c ****     GPIO_InitStruct.Pin = TX2_Pin|RX2_Pin;
 131:Core/Src/usart.c ****     GPIO_InitStruct.Mode = GPIO_MODE_AF_PP;
 132:Core/Src/usart.c ****     GPIO_InitStruct.Pull = GPIO_NOPULL;
 133:Core/Src/usart.c ****     GPIO_InitStruct.Speed = GPIO_SPEED_FREQ_VERY_HIGH;
 134:Core/Src/usart.c ****     GPIO_InitStruct.Alternate = GPIO_AF7_USART3;
 135:Core/Src/usart.c ****     HAL_GPIO_Init(GPIOB, &GPIO_InitStruct);
 136:Core/Src/usart.c **** 
 137:Core/Src/usart.c ****   /* USER CODE BEGIN USART3_MspInit 1 */
 138:Core/Src/usart.c **** 
 139:Core/Src/usart.c ****   /* USER CODE END USART3_MspInit 1 */
 140:Core/Src/usart.c ****   }
 141:Core/Src/usart.c **** }
 204              		.loc 1 141 1 view .LVU55
ARM GAS  C:\Users\bubble\AppData\Local\Temp\cc9JhjrW.s 			page 7


 205 001e 0BB0     		add	sp, sp, #44
 206              	.LCFI4:
 207              		.cfi_remember_state
 208              		.cfi_def_cfa_offset 4
 209              		@ sp needed
 210 0020 5DF804FB 		ldr	pc, [sp], #4
 211              	.LVL6:
 212              	.L17:
 213              	.LCFI5:
 214              		.cfi_restore_state
  99:Core/Src/usart.c **** 
 215              		.loc 1 99 5 is_stmt 1 view .LVU56
 216              	.LBB2:
  99:Core/Src/usart.c **** 
 217              		.loc 1 99 5 view .LVU57
 218 0024 0021     		movs	r1, #0
 219 0026 0191     		str	r1, [sp, #4]
  99:Core/Src/usart.c **** 
 220              		.loc 1 99 5 view .LVU58
 221 0028 244B     		ldr	r3, .L19+8
 222 002a 5A6C     		ldr	r2, [r3, #68]
 223 002c 42F01002 		orr	r2, r2, #16
 224 0030 5A64     		str	r2, [r3, #68]
  99:Core/Src/usart.c **** 
 225              		.loc 1 99 5 view .LVU59
 226 0032 5A6C     		ldr	r2, [r3, #68]
 227 0034 02F01002 		and	r2, r2, #16
 228 0038 0192     		str	r2, [sp, #4]
  99:Core/Src/usart.c **** 
 229              		.loc 1 99 5 view .LVU60
 230 003a 019A     		ldr	r2, [sp, #4]
 231              	.LBE2:
  99:Core/Src/usart.c **** 
 232              		.loc 1 99 5 view .LVU61
 101:Core/Src/usart.c ****     /**USART1 GPIO Configuration
 233              		.loc 1 101 5 view .LVU62
 234              	.LBB3:
 101:Core/Src/usart.c ****     /**USART1 GPIO Configuration
 235              		.loc 1 101 5 view .LVU63
 236 003c 0291     		str	r1, [sp, #8]
 101:Core/Src/usart.c ****     /**USART1 GPIO Configuration
 237              		.loc 1 101 5 view .LVU64
 238 003e 1A6B     		ldr	r2, [r3, #48]
 239 0040 42F00102 		orr	r2, r2, #1
 240 0044 1A63     		str	r2, [r3, #48]
 101:Core/Src/usart.c ****     /**USART1 GPIO Configuration
 241              		.loc 1 101 5 view .LVU65
 242 0046 1B6B     		ldr	r3, [r3, #48]
 243 0048 03F00103 		and	r3, r3, #1
 244 004c 0293     		str	r3, [sp, #8]
 101:Core/Src/usart.c ****     /**USART1 GPIO Configuration
 245              		.loc 1 101 5 view .LVU66
 246 004e 029B     		ldr	r3, [sp, #8]
 247              	.LBE3:
 101:Core/Src/usart.c ****     /**USART1 GPIO Configuration
 248              		.loc 1 101 5 view .LVU67
 106:Core/Src/usart.c ****     GPIO_InitStruct.Mode = GPIO_MODE_AF_PP;
ARM GAS  C:\Users\bubble\AppData\Local\Temp\cc9JhjrW.s 			page 8


 249              		.loc 1 106 5 view .LVU68
 106:Core/Src/usart.c ****     GPIO_InitStruct.Mode = GPIO_MODE_AF_PP;
 250              		.loc 1 106 25 is_stmt 0 view .LVU69
 251 0050 4FF4C063 		mov	r3, #1536
 252 0054 0593     		str	r3, [sp, #20]
 107:Core/Src/usart.c ****     GPIO_InitStruct.Pull = GPIO_NOPULL;
 253              		.loc 1 107 5 is_stmt 1 view .LVU70
 107:Core/Src/usart.c ****     GPIO_InitStruct.Pull = GPIO_NOPULL;
 254              		.loc 1 107 26 is_stmt 0 view .LVU71
 255 0056 0223     		movs	r3, #2
 256 0058 0693     		str	r3, [sp, #24]
 108:Core/Src/usart.c ****     GPIO_InitStruct.Speed = GPIO_SPEED_FREQ_VERY_HIGH;
 257              		.loc 1 108 5 is_stmt 1 view .LVU72
 109:Core/Src/usart.c ****     GPIO_InitStruct.Alternate = GPIO_AF7_USART1;
 258              		.loc 1 109 5 view .LVU73
 109:Core/Src/usart.c ****     GPIO_InitStruct.Alternate = GPIO_AF7_USART1;
 259              		.loc 1 109 27 is_stmt 0 view .LVU74
 260 005a 0323     		movs	r3, #3
 261 005c 0893     		str	r3, [sp, #32]
 110:Core/Src/usart.c ****     HAL_GPIO_Init(GPIOA, &GPIO_InitStruct);
 262              		.loc 1 110 5 is_stmt 1 view .LVU75
 110:Core/Src/usart.c ****     HAL_GPIO_Init(GPIOA, &GPIO_InitStruct);
 263              		.loc 1 110 31 is_stmt 0 view .LVU76
 264 005e 0723     		movs	r3, #7
 265 0060 0993     		str	r3, [sp, #36]
 111:Core/Src/usart.c **** 
 266              		.loc 1 111 5 is_stmt 1 view .LVU77
 267 0062 05A9     		add	r1, sp, #20
 268 0064 1648     		ldr	r0, .L19+12
 269              	.LVL7:
 111:Core/Src/usart.c **** 
 270              		.loc 1 111 5 is_stmt 0 view .LVU78
 271 0066 FFF7FEFF 		bl	HAL_GPIO_Init
 272              	.LVL8:
 273 006a D8E7     		b	.L13
 274              	.LVL9:
 275              	.L18:
 123:Core/Src/usart.c **** 
 276              		.loc 1 123 5 is_stmt 1 view .LVU79
 277              	.LBB4:
 123:Core/Src/usart.c **** 
 278              		.loc 1 123 5 view .LVU80
 279 006c 0021     		movs	r1, #0
 280 006e 0391     		str	r1, [sp, #12]
 123:Core/Src/usart.c **** 
 281              		.loc 1 123 5 view .LVU81
 282 0070 124B     		ldr	r3, .L19+8
 283 0072 1A6C     		ldr	r2, [r3, #64]
 284 0074 42F48022 		orr	r2, r2, #262144
 285 0078 1A64     		str	r2, [r3, #64]
 123:Core/Src/usart.c **** 
 286              		.loc 1 123 5 view .LVU82
 287 007a 1A6C     		ldr	r2, [r3, #64]
 288 007c 02F48022 		and	r2, r2, #262144
 289 0080 0392     		str	r2, [sp, #12]
 123:Core/Src/usart.c **** 
 290              		.loc 1 123 5 view .LVU83
ARM GAS  C:\Users\bubble\AppData\Local\Temp\cc9JhjrW.s 			page 9


 291 0082 039A     		ldr	r2, [sp, #12]
 292              	.LBE4:
 123:Core/Src/usart.c **** 
 293              		.loc 1 123 5 view .LVU84
 125:Core/Src/usart.c ****     /**USART3 GPIO Configuration
 294              		.loc 1 125 5 view .LVU85
 295              	.LBB5:
 125:Core/Src/usart.c ****     /**USART3 GPIO Configuration
 296              		.loc 1 125 5 view .LVU86
 297 0084 0491     		str	r1, [sp, #16]
 125:Core/Src/usart.c ****     /**USART3 GPIO Configuration
 298              		.loc 1 125 5 view .LVU87
 299 0086 1A6B     		ldr	r2, [r3, #48]
 300 0088 42F00202 		orr	r2, r2, #2
 301 008c 1A63     		str	r2, [r3, #48]
 125:Core/Src/usart.c ****     /**USART3 GPIO Configuration
 302              		.loc 1 125 5 view .LVU88
 303 008e 1B6B     		ldr	r3, [r3, #48]
 304 0090 03F00203 		and	r3, r3, #2
 305 0094 0493     		str	r3, [sp, #16]
 125:Core/Src/usart.c ****     /**USART3 GPIO Configuration
 306              		.loc 1 125 5 view .LVU89
 307 0096 049B     		ldr	r3, [sp, #16]
 308              	.LBE5:
 125:Core/Src/usart.c ****     /**USART3 GPIO Configuration
 309              		.loc 1 125 5 view .LVU90
 130:Core/Src/usart.c ****     GPIO_InitStruct.Mode = GPIO_MODE_AF_PP;
 310              		.loc 1 130 5 view .LVU91
 130:Core/Src/usart.c ****     GPIO_InitStruct.Mode = GPIO_MODE_AF_PP;
 311              		.loc 1 130 25 is_stmt 0 view .LVU92
 312 0098 4FF44063 		mov	r3, #3072
 313 009c 0593     		str	r3, [sp, #20]
 131:Core/Src/usart.c ****     GPIO_InitStruct.Pull = GPIO_NOPULL;
 314              		.loc 1 131 5 is_stmt 1 view .LVU93
 131:Core/Src/usart.c ****     GPIO_InitStruct.Pull = GPIO_NOPULL;
 315              		.loc 1 131 26 is_stmt 0 view .LVU94
 316 009e 0223     		movs	r3, #2
 317 00a0 0693     		str	r3, [sp, #24]
 132:Core/Src/usart.c ****     GPIO_InitStruct.Speed = GPIO_SPEED_FREQ_VERY_HIGH;
 318              		.loc 1 132 5 is_stmt 1 view .LVU95
 133:Core/Src/usart.c ****     GPIO_InitStruct.Alternate = GPIO_AF7_USART3;
 319              		.loc 1 133 5 view .LVU96
 133:Core/Src/usart.c ****     GPIO_InitStruct.Alternate = GPIO_AF7_USART3;
 320              		.loc 1 133 27 is_stmt 0 view .LVU97
 321 00a2 0323     		movs	r3, #3
 322 00a4 0893     		str	r3, [sp, #32]
 134:Core/Src/usart.c ****     HAL_GPIO_Init(GPIOB, &GPIO_InitStruct);
 323              		.loc 1 134 5 is_stmt 1 view .LVU98
 134:Core/Src/usart.c ****     HAL_GPIO_Init(GPIOB, &GPIO_InitStruct);
 324              		.loc 1 134 31 is_stmt 0 view .LVU99
 325 00a6 0723     		movs	r3, #7
 326 00a8 0993     		str	r3, [sp, #36]
 135:Core/Src/usart.c **** 
 327              		.loc 1 135 5 is_stmt 1 view .LVU100
 328 00aa 05A9     		add	r1, sp, #20
 329 00ac 0548     		ldr	r0, .L19+16
 330              	.LVL10:
ARM GAS  C:\Users\bubble\AppData\Local\Temp\cc9JhjrW.s 			page 10


 135:Core/Src/usart.c **** 
 331              		.loc 1 135 5 is_stmt 0 view .LVU101
 332 00ae FFF7FEFF 		bl	HAL_GPIO_Init
 333              	.LVL11:
 334              		.loc 1 141 1 view .LVU102
 335 00b2 B4E7     		b	.L13
 336              	.L20:
 337              		.align	2
 338              	.L19:
 339 00b4 00100140 		.word	1073811456
 340 00b8 00480040 		.word	1073760256
 341 00bc 00380240 		.word	1073887232
 342 00c0 00000240 		.word	1073872896
 343 00c4 00040240 		.word	1073873920
 344              		.cfi_endproc
 345              	.LFE241:
 347              		.section	.text.HAL_UART_MspDeInit,"ax",%progbits
 348              		.align	1
 349              		.global	HAL_UART_MspDeInit
 350              		.syntax unified
 351              		.thumb
 352              		.thumb_func
 354              	HAL_UART_MspDeInit:
 355              	.LVL12:
 356              	.LFB242:
 142:Core/Src/usart.c **** 
 143:Core/Src/usart.c **** void HAL_UART_MspDeInit(UART_HandleTypeDef* uartHandle)
 144:Core/Src/usart.c **** {
 357              		.loc 1 144 1 is_stmt 1 view -0
 358              		.cfi_startproc
 359              		@ args = 0, pretend = 0, frame = 0
 360              		@ frame_needed = 0, uses_anonymous_args = 0
 361              		.loc 1 144 1 is_stmt 0 view .LVU104
 362 0000 08B5     		push	{r3, lr}
 363              	.LCFI6:
 364              		.cfi_def_cfa_offset 8
 365              		.cfi_offset 3, -8
 366              		.cfi_offset 14, -4
 145:Core/Src/usart.c **** 
 146:Core/Src/usart.c ****   if(uartHandle->Instance==USART1)
 367              		.loc 1 146 3 is_stmt 1 view .LVU105
 368              		.loc 1 146 16 is_stmt 0 view .LVU106
 369 0002 0368     		ldr	r3, [r0]
 370              		.loc 1 146 5 view .LVU107
 371 0004 0F4A     		ldr	r2, .L27
 372 0006 9342     		cmp	r3, r2
 373 0008 03D0     		beq	.L25
 147:Core/Src/usart.c ****   {
 148:Core/Src/usart.c ****   /* USER CODE BEGIN USART1_MspDeInit 0 */
 149:Core/Src/usart.c **** 
 150:Core/Src/usart.c ****   /* USER CODE END USART1_MspDeInit 0 */
 151:Core/Src/usart.c ****     /* Peripheral clock disable */
 152:Core/Src/usart.c ****     __HAL_RCC_USART1_CLK_DISABLE();
 153:Core/Src/usart.c **** 
 154:Core/Src/usart.c ****     /**USART1 GPIO Configuration
 155:Core/Src/usart.c ****     PA9     ------> USART1_TX
 156:Core/Src/usart.c ****     PA10     ------> USART1_RX
ARM GAS  C:\Users\bubble\AppData\Local\Temp\cc9JhjrW.s 			page 11


 157:Core/Src/usart.c ****     */
 158:Core/Src/usart.c ****     HAL_GPIO_DeInit(GPIOA, TX1_Pin|RX1_Pin);
 159:Core/Src/usart.c **** 
 160:Core/Src/usart.c ****   /* USER CODE BEGIN USART1_MspDeInit 1 */
 161:Core/Src/usart.c **** 
 162:Core/Src/usart.c ****   /* USER CODE END USART1_MspDeInit 1 */
 163:Core/Src/usart.c ****   }
 164:Core/Src/usart.c ****   else if(uartHandle->Instance==USART3)
 374              		.loc 1 164 8 is_stmt 1 view .LVU108
 375              		.loc 1 164 10 is_stmt 0 view .LVU109
 376 000a 0F4A     		ldr	r2, .L27+4
 377 000c 9342     		cmp	r3, r2
 378 000e 0CD0     		beq	.L26
 379              	.LVL13:
 380              	.L21:
 165:Core/Src/usart.c ****   {
 166:Core/Src/usart.c ****   /* USER CODE BEGIN USART3_MspDeInit 0 */
 167:Core/Src/usart.c **** 
 168:Core/Src/usart.c ****   /* USER CODE END USART3_MspDeInit 0 */
 169:Core/Src/usart.c ****     /* Peripheral clock disable */
 170:Core/Src/usart.c ****     __HAL_RCC_USART3_CLK_DISABLE();
 171:Core/Src/usart.c **** 
 172:Core/Src/usart.c ****     /**USART3 GPIO Configuration
 173:Core/Src/usart.c ****     PB10     ------> USART3_TX
 174:Core/Src/usart.c ****     PB11     ------> USART3_RX
 175:Core/Src/usart.c ****     */
 176:Core/Src/usart.c ****     HAL_GPIO_DeInit(GPIOB, TX2_Pin|RX2_Pin);
 177:Core/Src/usart.c **** 
 178:Core/Src/usart.c ****   /* USER CODE BEGIN USART3_MspDeInit 1 */
 179:Core/Src/usart.c **** 
 180:Core/Src/usart.c ****   /* USER CODE END USART3_MspDeInit 1 */
 181:Core/Src/usart.c ****   }
 182:Core/Src/usart.c **** }
 381              		.loc 1 182 1 view .LVU110
 382 0010 08BD     		pop	{r3, pc}
 383              	.LVL14:
 384              	.L25:
 152:Core/Src/usart.c **** 
 385              		.loc 1 152 5 is_stmt 1 view .LVU111
 386 0012 02F59432 		add	r2, r2, #75776
 387 0016 536C     		ldr	r3, [r2, #68]
 388 0018 23F01003 		bic	r3, r3, #16
 389 001c 5364     		str	r3, [r2, #68]
 158:Core/Src/usart.c **** 
 390              		.loc 1 158 5 view .LVU112
 391 001e 4FF4C061 		mov	r1, #1536
 392 0022 0A48     		ldr	r0, .L27+8
 393              	.LVL15:
 158:Core/Src/usart.c **** 
 394              		.loc 1 158 5 is_stmt 0 view .LVU113
 395 0024 FFF7FEFF 		bl	HAL_GPIO_DeInit
 396              	.LVL16:
 397 0028 F2E7     		b	.L21
 398              	.LVL17:
 399              	.L26:
 170:Core/Src/usart.c **** 
 400              		.loc 1 170 5 is_stmt 1 view .LVU114
ARM GAS  C:\Users\bubble\AppData\Local\Temp\cc9JhjrW.s 			page 12


 401 002a 02F5F832 		add	r2, r2, #126976
 402 002e 136C     		ldr	r3, [r2, #64]
 403 0030 23F48023 		bic	r3, r3, #262144
 404 0034 1364     		str	r3, [r2, #64]
 176:Core/Src/usart.c **** 
 405              		.loc 1 176 5 view .LVU115
 406 0036 4FF44061 		mov	r1, #3072
 407 003a 0548     		ldr	r0, .L27+12
 408              	.LVL18:
 176:Core/Src/usart.c **** 
 409              		.loc 1 176 5 is_stmt 0 view .LVU116
 410 003c FFF7FEFF 		bl	HAL_GPIO_DeInit
 411              	.LVL19:
 412              		.loc 1 182 1 view .LVU117
 413 0040 E6E7     		b	.L21
 414              	.L28:
 415 0042 00BF     		.align	2
 416              	.L27:
 417 0044 00100140 		.word	1073811456
 418 0048 00480040 		.word	1073760256
 419 004c 00000240 		.word	1073872896
 420 0050 00040240 		.word	1073873920
 421              		.cfi_endproc
 422              	.LFE242:
 424              		.global	huart3
 425              		.global	huart1
 426              		.section	.bss.huart1,"aw",%nobits
 427              		.align	2
 428              		.set	.LANCHOR0,. + 0
 431              	huart1:
 432 0000 00000000 		.space	72
 432      00000000 
 432      00000000 
 432      00000000 
 432      00000000 
 433              		.section	.bss.huart3,"aw",%nobits
 434              		.align	2
 435              		.set	.LANCHOR1,. + 0
 438              	huart3:
 439 0000 00000000 		.space	72
 439      00000000 
 439      00000000 
 439      00000000 
 439      00000000 
 440              		.text
 441              	.Letext0:
 442              		.file 2 "d:\\app\\clion-dependency\\gcc-arm\\arm-none-eabi\\include\\machine\\_default_types.h"
 443              		.file 3 "d:\\app\\clion-dependency\\gcc-arm\\arm-none-eabi\\include\\sys\\_stdint.h"
 444              		.file 4 "Drivers/CMSIS/Device/ST/STM32F4xx/Include/stm32f405xx.h"
 445              		.file 5 "Drivers/STM32F4xx_HAL_Driver/Inc/stm32f4xx_hal_def.h"
 446              		.file 6 "Drivers/STM32F4xx_HAL_Driver/Inc/stm32f4xx_hal_gpio.h"
 447              		.file 7 "Drivers/STM32F4xx_HAL_Driver/Inc/stm32f4xx_hal_dma.h"
 448              		.file 8 "Drivers/STM32F4xx_HAL_Driver/Inc/stm32f4xx_hal_uart.h"
 449              		.file 9 "Core/Inc/usart.h"
 450              		.file 10 "Core/Inc/main.h"
ARM GAS  C:\Users\bubble\AppData\Local\Temp\cc9JhjrW.s 			page 13

